(lp0
(lp1
F-0.0
aF0.0
aa(lp2
F-0.0
aF0.0
aa(lp3
F0.9933876395225525
aF0.0
aa(lp4
F1.0
aF0.0
aa(lp5
F1.0
aF0.0
aa(lp6
F1.0
aF0.0
aa(lp7
F1.0
aF0.0
aa(lp8
F1.0
aF0.0
aa(lp9
F1.0
aF0.0
aa(lp10
F1.0
aF0.0
aa(lp11
F1.0
aF0.0
aa(lp12
F1.0
aF-0.0
aa(lp13
F1.0
aF0.16770429909229279
aa(lp14
F1.0
aF0.21760205924510956
aa(lp15
F1.0
aF0.47077006101608276
aa(lp16
F1.0
aF0.47077006101608276
aa(lp17
F1.0
aF0.4763312041759491
aa(lp18
F1.0
aF0.42458537220954895
aa(lp19
F1.0
aF0.05314120277762413
aa(lp20
F1.0
aF-0.0
aa(lp21
F1.0
aF-0.0
aa(lp22
F1.0
aF-0.03649165853857994
aa(lp23
F1.0
aF-0.3949993848800659
aa(lp24
F1.0
aF-0.36726143956184387
aa(lp25
F1.0
aF-0.36726143956184387
aa(lp26
F1.0
aF-0.4596647024154663
aa(lp27
F1.0
aF-0.4375048875808716
aa(lp28
F1.0
aF-0.5
aa(lp29
F1.0
aF-0.0
aa(lp30
F1.0
aF-0.0
aa(lp31
F1.0
aF-0.4116319715976715
aa(lp32
F1.0
aF-0.012466811574995518
aa(lp33
F1.0
aF-0.01985907182097435
aa(lp34
F1.0
aF-0.0
aa(lp35
F1.0
aF-0.0
aa(lp36
F1.0
aF0.21205785870552063
aa(lp37
F1.0
aF0.04205280914902687
aa(lp38
F1.0
aF0.1898980289697647
aa(lp39
F1.0
aF0.21205785870552063
aa(lp40
F1.0
aF0.06977379322052002
aa(lp41
F1.0
aF0.00693956995382905
aa(lp42
F1.0
aF0.001395374070852995
aa(lp43
F0.9749408960342407
aF0.0032603940926492214
aa(lp44
F0.9749408960342407
aF0.0032603940926492214
aa(lp45
F0.9749408960342407
aF0.0032603940926492214
aa(lp46
F0.9749408960342407
aF0.0032603940926492214
aa(lp47
F0.9786370396614075
aF0.0032603940926492214
aa(lp48
F0.982299268245697
aF-0.08823748677968979
aa(lp49
F0.997049868106842
aF-0.3266209661960602
aa(lp50
F1.0
aF-0.40793582797050476
aa(lp51
F1.0
aF-0.40793582797050476
aa(lp52
F1.0
aF-0.40793582797050476
aa(lp53
F1.0
aF-0.40793582797050476
aa(lp54
F1.0
aF-0.40793582797050476
aa(lp55
F1.0
aF-0.2527152895927429
aa(lp56
F1.0
aF-0.0032434393651783466
aa(lp57
F1.0
aF0.21760205924510956
aa(lp58
F1.0
aF0.3155325651168823
aa(lp59
F1.0
aF0.35990309715270996
aa(lp60
F1.0
aF0.3488146960735321
aa(lp61
F1.0
aF0.021724091842770576
aa(lp62
F1.0
aF0.005091504659503698
aa(lp63
F1.0
aF0.043900877237319946
aa(lp64
F1.0
aF0.03650861606001854
aa(lp65
F1.0
aF-0.0050745499320328236
aa(lp66
F1.0
aF-0.13072603940963745
aa(lp67
F1.0
aF-0.16031204164028168
aa(lp68
F1.0
aF-0.16031204164028168
aa(lp69
F1.0
aF-0.0
aa(lp70
F1.0
aF-0.0
aa(lp71
F1.0
aF-0.0
aa(lp72
F1.0
aF-0.0
aa(lp73
F1.0
aF0.01063570100814104
aa(lp74
F1.0
aF0.10487007349729538
aa(lp75
F1.0
aF0.20836172997951508
aa(lp76
F1.0
aF0.13074299693107605
aa(lp77
F1.0
aF0.14924059808254242
aa(lp78
F1.0
aF0.06422959268093109
aa(lp79
F1.0
aF0.09749476611614227
aa(lp80
F1.0
aF0.09749476611614227
aa(lp81
F1.0
aF0.1030389666557312
aa(lp82
F1.0
aF0.12889492511749268
aa(lp83
F1.0
aF0.16955235600471497
aa(lp84
F1.0
aF0.2139228880405426
aa(lp85
F1.0
aF0.22499431669712067
aa(lp86
F1.0
aF0.25641143321990967
aa(lp87
F1.0
aF0.278588205575943
aa(lp88
F1.0
aF0.2859804630279541
aa(lp89
F1.0
aF0.2859804630279541
aa(lp90
F1.0
aF-0.0
aa(lp91
F1.0
aF-0.0
aa(lp92
F1.0
aF-0.010618746280670166
aa(lp93
F1.0
aF-0.038339726626873016
aa(lp94
F1.0
aF-0.051276180893182755
aa(lp95
F1.0
aF-0.051276180893182755
aa(lp96
F1.0
aF-0.062364574521780014
aa(lp97
F1.0
aF-0.08823748677968979
aa(lp98
F1.0
aF-0.09378168731927872
aa(lp99
F1.0
aF-0.11778958141803741
aa(lp100
F1.0
aF-0.11778958141803741
aa(lp101
F1.0
aF-0.12335073202848434
aa(lp102
F1.0
aF-0.11226233839988708
aa(lp103
F1.0
aF-0.0
aa(lp104
F1.0
aF-0.0
aa(lp105
F1.0
aF-0.0
aa(lp106
F1.0
aF-0.0
aa(lp107
F1.0
aF-0.0
aa(lp108
F1.0
aF-0.0
aa(lp109
F1.0
aF-0.010618746280670166
aa(lp110
F1.0
aF-0.09191666543483734
aa(lp111
F1.0
aF-0.09191666543483734
aa(lp112
F1.0
aF-0.09191666543483734
aa(lp113
F1.0
aF-0.0
aa(lp114
F1.0
aF-0.0
aa(lp115
F1.0
aF-0.0
aa(lp116
F1.0
aF-0.0789802074432373
aa(lp117
F1.0
aF-0.08454135805368423
aa(lp118
F1.0
aF-0.0
aa(lp119
F1.0
aF-0.0
aa(lp120
F1.0
aF-0.0
aa(lp121
F1.0
aF-0.0
aa(lp122
F1.0
aF-0.0
aa(lp123
F1.0
aF-0.0
aa(lp124
F1.0
aF0.0475970059633255
aa(lp125
F1.0
aF0.0475970059633255
aa(lp126
F1.0
aF0.0475970059633255
aa(lp127
F1.0
aF0.06422959268093109
aa(lp128
F1.0
aF0.06977379322052002
aa(lp129
F1.0
aF0.05129313841462135
aa(lp130
F1.0
aF0.03650861606001854
aa(lp131
F1.0
aF0.04205280914902687
aa(lp132
F1.0
aF0.0475970059633255
aa(lp133
F1.0
aF0.04205280914902687
aa(lp134
F1.0
aF0.04205280914902687
aa(lp135
F1.0
aF0.04205280914902687
aa(lp136
F1.0
aF0.04205280914902687
aa(lp137
F0.9933876395225525
aF0.040204744786024094
aa(lp138
F0.9933876395225525
aF0.040204744786024094
aa(lp139
F0.9933876395225525
aF0.040204744786024094
aa(lp140
F0.997049868106842
aF-0.11595846712589264
aa(lp141
F0.997049868106842
aF-0.1898810863494873
aa(lp142
F0.997049868106842
aF-0.2674828767776489
aa(lp143
F0.997049868106842
aF-0.008770680986344814
aa(lp144
F1.0
aF-0.0
aa(lp145
F1.0
aF0.08084522932767868
aa(lp146
F1.0
aF0.08640637993812561
aa(lp147
F1.0
aF0.14552751183509827
aa(lp148
F1.0
aF0.15661589801311493
aa(lp149
F1.0
aF0.1418313831090927
aa(lp150
F1.0
aF0.14000026881694794
aa(lp151
F1.0
aF0.040204744786024094
aa(lp152
F1.0
aF0.012483766302466393
aa(lp153
F1.0
aF-0.0
aa(lp154
F1.0
aF-0.016179896891117096
aa(lp155
F1.0
aF-0.07345296442508698
aa(lp156
F1.0
aF-0.08454135805368423
aa(lp157
F1.0
aF-0.1030220091342926
aa(lp158
F1.0
aF-0.1030220091342926
aa(lp159
F1.0
aF-0.11411040276288986
aa(lp160
F1.0
aF-0.11411040276288986
aa(lp161
F1.0
aF-0.11411040276288986
aa(lp162
F1.0
aF-0.014331831596791744
aa(lp163
F1.0
aF-0.0
aa(lp164
F1.0
aF-0.0
aa(lp165
F1.0
aF-0.010618746280670166
aa(lp166
F1.0
aF-0.027268288657069206
aa(lp167
F1.0
aF-0.1584639698266983
aa(lp168
F1.0
aF-0.1991214007139206
aa(lp169
F1.0
aF-0.1991214007139206
aa(lp170
F1.0
aF-0.1991214007139206
aa(lp171
F1.0
aF-0.1991214007139206
aa(lp172
F1.0
aF-0.1991214007139206
aa(lp173
F1.0
aF-0.1991214007139206
aa(lp174
F1.0
aF-0.01985907182097435
aa(lp175
F1.0
aF-0.014331831596791744
aa(lp176
F1.0
aF-0.014331831596791744
aa(lp177
F1.0
aF-0.0
aa(lp178
F1.0
aF0.0956467017531395
aa(lp179
F1.0
aF0.18804997205734253
aa(lp180
F1.0
aF0.20836172997951508
aa(lp181
F1.0
aF0.27304401993751526
aa(lp182
F1.0
aF0.27304401993751526
aa(lp183
F1.0
aF0.32294178009033203
aa(lp184
F1.0
aF0.47077006101608276
aa(lp185
F1.0
aF0.23608271777629852
aa(lp186
F1.0
aF0.09934283792972565
aa(lp187
F1.0
aF-0.008770680986344814
aa(lp188
F1.0
aF-0.11041427403688431
aa(lp189
F1.0
aF-0.008770680986344814
aa(lp190
F1.0
aF-0.016179896891117096
aa(lp191
F1.0
aF-0.040204744786024094
aa(lp192
F1.0
aF-0.0
aa(lp193
F1.0
aF-0.18431992828845978
aa(lp194
F1.0
aF-0.010618746280670166
aa(lp195
F1.0
aF-0.20281752943992615
aa(lp196
F1.0
aF-0.051276180893182755
aa(lp197
F1.0
aF-0.0
aa(lp198
F1.0
aF-0.0
aa(lp199
F1.0
aF-0.0
aa(lp200
F1.0
aF-0.0
aa(lp201
F1.0
aF-0.0
aa(lp202
F1.0
aF-0.0
aa(lp203
F1.0
aF0.0716218575835228
aa(lp204
F1.0
aF0.21945013105869293
aa(lp205
F1.0
aF0.3321821093559265
aa(lp206
F1.0
aF0.43196067214012146
aa(lp207
F1.0
aF0.47261810302734375
aa(lp208
F1.0
aF0.47261810302734375
aa(lp209
F1.0
aF0.47261810302734375
aa(lp210
F1.0
aF0.4430490732192993
aa(lp211
F1.0
aF0.422720342874527
aa(lp212
F1.0
aF0.16402511298656464
aa(lp213
F1.0
aF-0.023555202409625053
aa(lp214
F1.0
aF-0.24345801770687103
aa(lp215
F1.0
aF-0.5
aa(lp216
F1.0
aF-0.4596647024154663
aa(lp217
F1.0
aF-0.09191666543483734
aa(lp218
F1.0
aF-0.5
aa(lp219
F1.0
aF-0.5
aa(lp220
F1.0
aF-0.5
aa(lp221
F1.0
aF-0.5
aa(lp222
F1.0
aF-0.5
aa(lp223
F1.0
aF-0.5
aa(lp224
F1.0
aF-0.5
aa(lp225
F1.0
aF-0.0
aa(lp226
F1.0
aF-0.06606070697307587
aa(lp227
F1.0
aF-0.2619386613368988
aa(lp228
F1.0
aF-0.016179896891117096
aa(lp229
F1.0
aF0.16217705607414246
aa(lp230
F1.0
aF0.21577094495296478
aa(lp231
F1.0
aF0.21577094495296478
aa(lp232
F1.0
aF0.18618494272232056
aa(lp233
F1.0
aF0.14739252626895905
aa(lp234
F1.0
aF0.16402511298656464
aa(lp235
F1.0
aF0.16955235600471497
aa(lp236
F1.0
aF0.16955235600471497
aa(lp237
F1.0
aF0.16955235600471497
aa(lp238
F1.0
aF0.16955235600471497
aa(lp239
F1.0
aF0.21760205924510956
aa(lp240
F1.0
aF0.21760205924510956
aa(lp241
F1.0
aF0.2711959481239319
aa(lp242
F1.0
aF0.27304401993751526
aa(lp243
F1.0
aF0.27304401993751526
aa(lp244
F1.0
aF0.038356680423021317
aa(lp245
F1.0
aF0.0475970059633255
aa(lp246
F1.0
aF0.21760205924510956
aa(lp247
F1.0
aF0.21760205924510956
aa(lp248
F1.0
aF-0.001395374070852995
aa(lp249
F1.0
aF-0.001395374070852995
aa(lp250
F1.0
aF-0.001395374070852995
aa(lp251
F1.0
aF-0.0
aa(lp252
F1.0
aF-0.0
aa(lp253
F1.0
aF-0.0
aa(lp254
F1.0
aF-0.0
aa(lp255
F1.0
aF-0.0
aa(lp256
F1.0
aF-0.0050745499320328236
aa(lp257
F1.0
aF-0.034643594175577164
aa(lp258
F1.0
aF-0.034643594175577164
aa(lp259
F1.0
aF-0.034643594175577164
aa(lp260
F1.0
aF-0.0
aa(lp261
F1.0
aF-0.0
aa(lp262
F1.0
aF-0.001395374070852995
aa(lp263
F1.0
aF-0.0
aa(lp264
F1.0
aF-0.0
aa(lp265
F1.0
aF-0.001395374070852995
aa(lp266
F1.0
aF-0.06975683569908142
aa(lp267
F1.0
aF-0.08638942241668701
aa(lp268
F1.0
aF-0.11595846712589264
aa(lp269
F1.0
aF-0.11595846712589264
aa(lp270
F1.0
aF-0.11595846712589264
aa(lp271
F1.0
aF-0.11595846712589264
aa(lp272
F1.0
aF-0.0032434393651783466
aa(lp273
F1.0
aF-0.0
aa(lp274
F1.0
aF-0.0716049000620842
aa(lp275
F1.0
aF-0.11411040276288986
aa(lp276
F1.0
aF-0.1436624974012375
aa(lp277
F1.0
aF-0.14922364056110382
aa(lp278
F1.0
aF-0.04203585535287857
aa(lp279
F1.0
aF-0.023555202409625053
aa(lp280
F1.0
aF-0.06051651015877724
aa(lp281
F1.0
aF-0.1030220091342926
aa(lp282
F1.0
aF-0.04388391971588135
aa(lp283
F1.0
aF-0.010618746280670166
aa(lp284
F1.0
aF-0.0
aa(lp285
F1.0
aF-0.0
aa(lp286
F1.0
aF-0.0
aa(lp287
F1.0
aF-0.0
aa(lp288
F1.0
aF-0.006922615226358175
aa(lp289
F1.0
aF-0.11595846712589264
aa(lp290
F1.0
aF-0.2453060895204544
aa(lp291
F1.0
aF-0.30444416403770447
aa(lp292
F1.0
aF-0.37834984064102173
aa(lp293
F1.0
aF-0.38391098380088806
aa(lp294
F1.0
aF-0.38391098380088806
aa(lp295
F1.0
aF-0.38391098380088806
aa(lp296
F1.0
aF-0.38391098380088806
aa(lp297
F1.0
aF-0.38391098380088806
aa(lp298
F1.0
aF-0.018011007457971573
aa(lp299
F1.0
aF-0.0
aa(lp300
F1.0
aF0.1436794400215149
aa(lp301
F1.0
aF0.5
aa(lp302
F1.0
aF0.5
aa(lp303
F1.0
aF0.5
aa(lp304
F1.0
aF0.5
aa(lp305
F1.0
aF0.5
aa(lp306
F1.0
aF0.5
aa(lp307
F1.0
aF0.5
aa(lp308
F1.0
aF0.4116489291191101
aa(lp309
F-0.0
aF0.03650861606001854
aa(lp310
F0.7092264294624329
aF0.03650861606001854
aa(lp311
F1.0
aF0.03650861606001854
aa(lp312
F1.0
aF0.03650861606001854
aa(lp313
F1.0
aF0.0475970059633255
aa(lp314
F1.0
aF0.22685934603214264
aa(lp315
F1.0
aF0.2711959481239319
aa(lp316
F1.0
aF0.2638036906719208
aa(lp317
F1.0
aF0.18804997205734253
aa(lp318
F1.0
aF0.040204744786024094
aa(lp319
F1.0
aF-0.0
aa(lp320
F1.0
aF-0.3746706545352936
aa(lp321
F1.0
aF-0.48740264773368835
aa(lp322
F1.0
aF-0.5
aa(lp323
F1.0
aF-0.5
aa(lp324
F1.0
aF-0.5
aa(lp325
F1.0
aF-0.5
aa(lp326
F1.0
aF-0.5
aa(lp327
F-0.0
aF-0.5
aa(lp328
F-0.0
aF-0.5
aa(lp329
F-0.0
aF-0.5
aa(lp330
F-0.0
aF-0.5
aa(lp331
F0.7646005749702454
aF-0.0050745499320328236
aa(lp332
F0.9786370396614075
aF-0.0
aa(lp333
F0.982299268245697
aF-0.0
aa(lp334
F0.9786370396614075
aF0.21205785870552063
aa(lp335
F0.982299268245697
aF0.35990309715270996
aa(lp336
F0.982299268245697
aF0.5
aa(lp337
F0.982299268245697
aF0.5
aa(lp338
F0.982299268245697
aF0.38577601313591003
aa(lp339
F0.982299268245697
aF-0.0
aa(lp340
F0.982299268245697
aF-0.0
aa(lp341
F0.9786370396614075
aF-0.0
aa(lp342
F0.982299268245697
aF0.021724091842770576
aa(lp343
F0.982299268245697
aF0.021724091842770576
aa(lp344
F0.9749408960342407
aF0.03281248360872269
aa(lp345
F0.9749408960342407
aF0.038356680423021317
aa(lp346
F0.9786370396614075
aF0.36912646889686584
aa(lp347
F0.9786370396614075
aF0.00693956995382905
aa(lp348
F0.9749408960342407
aF0.16032898426055908
aa(lp349
F0.9749408960342407
aF0.5
aa(lp350
F0.9786370396614075
aF0.5
aa(lp351
F0.9786370396614075
aF0.5
aa(lp352
F0.9749408960342407
aF0.5
aa(lp353
F0.9749408960342407
aF0.5
aa(lp354
F0.9749408960342407
aF-0.0
aa(lp355
F0.9786370396614075
aF-0.14552751183509827
aa(lp356
F0.9786370396614075
aF-0.19725638628005981
aa(lp357
F0.9786370396614075
aF-0.2711789906024933
aa(lp358
F0.9786370396614075
aF-0.2711789906024933
aa(lp359
F0.9786370396614075
aF-0.2711789906024933
aa(lp360
F0.9786370396614075
aF-0.3561899960041046
aa(lp361
F0.9786370396614075
aF-0.36173421144485474
aa(lp362
F0.9786370396614075
aF-0.3321651518344879
aa(lp363
F0.9786370396614075
aF-0.0
aa(lp364
F0.9786370396614075
aF-0.0
aa(lp365
F0.9786370396614075
aF-0.0
aa(lp366
F0.9786370396614075
aF-0.0
aa(lp367
F0.967548668384552
aF-0.0
aa(lp368
F0.9564602375030518
aF-0.0
aa(lp369
F0.9564602375030518
aF-0.0
aa(lp370
F0.9564602375030518
aF-0.0
aa(lp371
F0.9564602375030518
aF-0.0
aa(lp372
F0.971244752407074
aF-0.0
aa(lp373
F0.971244752407074
aF-0.0
aa(lp374
F0.971244752407074
aF-0.0
aa(lp375
F0.971244752407074
aF-0.0
aa(lp376
F0.9638525247573853
aF-0.0
aa(lp377
F0.9638525247573853
aF-0.19356025755405426
aa(lp378
F0.9638525247573853
aF-0.2064967155456543
aa(lp379
F0.9638525247573853
aF-0.2064967155456543
aa(lp380
F0.9638525247573853
aF-0.22499431669712067
aa(lp381
F0.9638525247573853
aF-0.23606576025485992
aa(lp382
F0.9638525247573853
aF-0.26563480496406555
aa(lp383
F0.9638525247573853
aF-0.2711789906024933
aa(lp384
F0.9638525247573853
aF-0.2878115773200989
aa(lp385
F0.9638525247573853
aF-0.0
aa(lp386
F0.9638525247573853
aF-0.0
aa(lp387
F0.9638525247573853
aF-0.0
aa(lp388
F0.9638525247573853
aF0.05129313841462135
aa(lp389
F0.9638525247573853
aF0.1030389666557312
aa(lp390
F0.9638525247573853
aF0.12151961773633957
aa(lp391
F0.9638525247573853
aF0.12151961773633957
aa(lp392
F0.9638525247573853
aF0.05314120277762413
aa(lp393
F0.9638525247573853
aF0.05314120277762413
aa(lp394
F0.9638525247573853
aF0.08271024376153946
aa(lp395
F0.9638525247573853
aF0.08825444430112839
aa(lp396
F0.9638525247573853
aF0.09934283792972565
aa(lp397
F0.9638525247573853
aF0.11043122410774231
aa(lp398
F0.9638525247573853
aF0.11043122410774231
aa(lp399
F0.9638525247573853
aF0.12151961773633957
aa(lp400
F0.9638525247573853
aF0.21760205924510956
aa(lp401
F0.9638525247573853
aF0.21760205924510956
aa(lp402
F0.9638525247573853
aF0.3192456364631653
aa(lp403
F0.9601563811302185
aF0.4375218152999878
aa(lp404
F0.9638525247573853
aF0.43936988711357117
aa(lp405
F0.9638525247573853
aF0.35434192419052124
aa(lp406
F0.9601563811302185
aF-0.0
aa(lp407
F0.9638525247573853
aF-0.0
aa(lp408
F0.9638525247573853
aF-0.06051651015877724
aa(lp409
F0.9638525247573853
aF-0.1584639698266983
aa(lp410
F0.9638525247573853
aF-0.18618494272232056
aa(lp411
F0.9638525247573853
aF-0.3081403076648712
aa(lp412
F0.9638525247573853
aF-0.3081403076648712
aa(lp413
F0.9638525247573853
aF-0.3081403076648712
aa(lp414
F0.9638525247573853
aF-0.3081403076648712
aa(lp415
F0.9638525247573853
aF-0.3081403076648712
aa(lp416
F0.9638525247573853
aF-0.33031708002090454
aa(lp417
F0.9638525247573853
aF-0.33031708002090454
aa(lp418
F0.9638525247573853
aF-0.3801978826522827
aa(lp419
F0.9638525247573853
aF-0.33031708002090454
aa(lp420
F0.9638525247573853
aF-0.0
aa(lp421
F0.9638525247573853
aF-0.0
aa(lp422
F0.9638525247573853
aF0.278588205575943
aa(lp423
F0.9638525247573853
aF0.3802148401737213
aa(lp424
F0.9638525247573853
aF0.5
aa(lp425
F0.9638525247573853
aF0.5
aa(lp426
F0.9638525247573853
aF0.5
aa(lp427
F0.9638525247573853
aF0.5
aa(lp428
F0.9638525247573853
aF0.5
aa(lp429
F0.9638525247573853
aF0.3506627678871155
aa(lp430
F0.9638525247573853
aF0.3395743668079376
aa(lp431
F0.9638525247573853
aF0.023572158068418503
aa(lp432
F0.9638525247573853
aF-0.034643594175577164
aa(lp433
F0.9638525247573853
aF-0.1510717123746872
aa(lp434
F0.9638525247573853
aF-0.25086724758148193
aa(lp435
F0.9638525247573853
aF-0.4282476007938385
aa(lp436
F0.9638525247573853
aF-0.1196545958518982
aa(lp437
F0.9638525247573853
aF-0.2767401337623596
aa(lp438
F0.9638525247573853
aF-0.339557409286499
aa(lp439
F0.9638525247573853
aF-0.339557409286499
aa(lp440
F0.9638525247573853
aF-0.339557409286499
aa(lp441
F0.9638525247573853
aF-0.339557409286499
aa(lp442
F0.9638525247573853
aF-0.3081403076648712
aa(lp443
F0.9638525247573853
aF-0.3025961220264435
aa(lp444
F0.9638525247573853
aF-0.17877572774887085
aa(lp445
F0.9638525247573853
aF-0.0
aa(lp446
F0.971244752407074
aF0.07716605067253113
aa(lp447
F0.967548668384552
aF0.16770429909229279
aa(lp448
F0.967548668384552
aF0.16770429909229279
aa(lp449
F0.967548668384552
aF0.16770429909229279
aa(lp450
F0.971244752407074
aF0.043900877237319946
aa(lp451
F0.971244752407074
aF0.038356680423021317
aa(lp452
F0.971244752407074
aF0.10119090229272842
aa(lp453
F0.971244752407074
aF0.043900877237319946
aa(lp454
F0.971244752407074
aF0.038356680423021317
aa(lp455
F0.971244752407074
aF0.09934283792972565
aa(lp456
F0.971244752407074
aF0.09934283792972565
aa(lp457
F0.971244752407074
aF-0.0
aa(lp458
F0.971244752407074
aF-0.018011007457971573
aa(lp459
F0.971244752407074
aF-0.0
aa(lp460
F0.971244752407074
aF0.0956467017531395
aa(lp461
F0.971244752407074
aF0.1030389666557312
aa(lp462
F0.971244752407074
aF0.1270638108253479
aa(lp463
F0.971244752407074
aF0.18618494272232056
aa(lp464
F0.971244752407074
aF0.20836172997951508
aa(lp465
F0.971244752407074
aF0.2139228880405426
aa(lp466
F0.971244752407074
aF0.2139228880405426
aa(lp467
F0.971244752407074
aF0.2139228880405426
aa(lp468
F0.971244752407074
aF0.2139228880405426
aa(lp469
F0.971244752407074
aF0.2139228880405426
aa(lp470
F0.971244752407074
aF0.2139228880405426
aa(lp471
F0.971244752407074
aF0.2139228880405426
aa(lp472
F0.967548668384552
aF0.04574894160032272
aa(lp473
F0.967548668384552
aF0.04574894160032272
aa(lp474
F0.9638525247573853
aF0.21945013105869293
aa(lp475
F0.967548668384552
aF0.062381528317928314
aa(lp476
F0.967548668384552
aF0.04205280914902687
aa(lp477
F0.9638525247573853
aF0.03650861606001854
aa(lp478
F0.967548668384552
aF-0.0
aa(lp479
F0.967548668384552
aF-0.0
aa(lp480
F0.967548668384552
aF-0.0
aa(lp481
F0.967548668384552
aF-0.0
aa(lp482
F0.9638525247573853
aF-0.0
aa(lp483
F0.9638525247573853
aF-0.0
aa(lp484
F0.9638525247573853
aF-0.08823748677968979
aa(lp485
F0.967548668384552
aF-0.27302706241607666
aa(lp486
F0.967548668384552
aF-0.29520383477211
aa(lp487
F0.967548668384552
aF-0.30444416403770447
aa(lp488
F0.967548668384552
aF-0.40793582797050476
aa(lp489
F0.967548668384552
aF-0.48740264773368835
aa(lp490
F0.967548668384552
aF-0.5
aa(lp491
F0.967548668384552
aF-0.5
aa(lp492
F0.967548668384552
aF-0.5
aa(lp493
F0.967548668384552
aF-0.5
aa(lp494
F0.967548668384552
aF-0.5
aa(lp495
F0.967548668384552
aF-0.0
aa(lp496
F0.967548668384552
aF0.034660547971725464
aa(lp497
F0.967548668384552
aF0.11227928847074509
aa(lp498
F0.967548668384552
aF0.2139228880405426
aa(lp499
F0.967548668384552
aF0.4837065041065216
aa(lp500
F0.967548668384552
aF0.5
aa(lp501
F0.967548668384552
aF0.5
aa(lp502
F0.967548668384552
aF0.5
aa(lp503
F0.967548668384552
aF0.043900877237319946
aa(lp504
F0.967548668384552
aF0.38577601313591003
aa(lp505
F0.967548668384552
aF0.03096441924571991
aa(lp506
F0.967548668384552
aF0.04205280914902687
aa(lp507
F0.967548668384552
aF0.04205280914902687
aa(lp508
F0.967548668384552
aF0.03650861606001854
aa(lp509
F0.967548668384552
aF-0.0
aa(lp510
F0.9638525247573853
aF-0.0
aa(lp511
F0.9638525247573853
aF-0.0
aa(lp512
F0.9859954118728638
aF-0.0
aa(lp513
F0.9933876395225525
aF-0.0
aa(lp514
F1.0
aF-0.0
aa(lp515
F1.0
aF0.00693956995382905
aa(lp516
F1.0
aF0.11597542464733124
aa(lp517
F1.0
aF-0.0
aa(lp518
F1.0
aF-0.0
aa(lp519
F0.971244752407074
aF-0.0
aa(lp520
F0.971244752407074
aF-0.07345296442508698
aa(lp521
F0.971244752407074
aF-0.0032434393651783466
aa(lp522
F0.971244752407074
aF-0.0
aa(lp523
F0.971244752407074
aF-0.0
aa(lp524
F0.9749408960342407
aF-0.0
aa(lp525
F0.971244752407074
aF0.08084522932767868
aa(lp526
F0.971244752407074
aF0.1030389666557312
aa(lp527
F0.9749408960342407
aF0.23238657414913177
aa(lp528
F0.971244752407074
aF0.29706886410713196
aa(lp529
F0.9749408960342407
aF0.3247898519039154
aa(lp530
F0.9749408960342407
aF0.3247898519039154
aa(lp531
F0.9749408960342407
aF0.3247898519039154
aa(lp532
F0.9749408960342407
aF0.043900877237319946
aa(lp533
F0.9749408960342407
aF-0.0
aa(lp534
F0.9749408960342407
aF-0.07345296442508698
aa(lp535
F0.9749408960342407
aF-0.17877572774887085
aa(lp536
F0.9749408960342407
aF-0.47075310349464417
aa(lp537
F0.9749408960342407
aF-0.03279552981257439
aa(lp538
F0.9749408960342407
aF-0.41531112790107727
aa(lp539
F0.9786370396614075
aF-0.027268288657069206
aa(lp540
F0.9786370396614075
aF-0.038339726626873016
aa(lp541
F0.9786370396614075
aF-0.014331831596791744
aa(lp542
F0.9786370396614075
aF-0.0
aa(lp543
F0.9786370396614075
aF-0.0
aa(lp544
F0.9786370396614075
aF-0.0
aa(lp545
F0.9749408960342407
aF-0.0
aa(lp546
F0.9786370396614075
aF0.10487007349729538
aa(lp547
F0.9749408960342407
aF0.05498926714062691
aa(lp548
F0.9786370396614075
aF0.04944507032632828
aa(lp549
F0.9786370396614075
aF0.04944507032632828
aa(lp550
F0.9786370396614075
aF0.04944507032632828
aa(lp551
F0.9786370396614075
aF0.03281248360872269
aa(lp552
F0.9786370396614075
aF0.03281248360872269
aa(lp553
F0.971244752407074
aF-0.0
aa(lp554
F0.971244752407074
aF-0.0
aa(lp555
F0.967548668384552
aF-0.0
aa(lp556
F0.967548668384552
aF-0.0
aa(lp557
F0.971244752407074
aF0.005091504659503698
aa(lp558
F0.971244752407074
aF0.027268288657069206
aa(lp559
F0.971244752407074
aF0.027268288657069206
aa(lp560
F0.967548668384552
aF0.043900877237319946
aa(lp561
F0.967548668384552
aF0.11043122410774231
aa(lp562
F0.967548668384552
aF0.21945013105869293
aa(lp563
F0.967548668384552
aF0.21945013105869293
aa(lp564
F0.971244752407074
aF0.22499431669712067
aa(lp565
F0.971244752407074
aF0.22499431669712067
aa(lp566
F0.971244752407074
aF0.22499431669712067
aa(lp567
F0.967548668384552
aF0.2139228880405426
aa(lp568
F0.967548668384552
aF0.029133308678865433
aa(lp569
F0.971244752407074
aF-0.0
aa(lp570
F0.971244752407074
aF-0.0
aa(lp571
F0.971244752407074
aF-0.0
aa(lp572
F0.971244752407074
aF-0.0
aa(lp573
F0.967548668384552
aF-0.26563480496406555
aa(lp574
F0.971244752407074
aF-0.3155156075954437
aa(lp575
F0.971244752407074
aF-0.32107675075531006
aa(lp576
F0.971244752407074
aF-0.32107675075531006
aa(lp577
F0.971244752407074
aF-0.32107675075531006
aa(lp578
F0.971244752407074
aF-0.0
aa(lp579
F0.967548668384552
aF-0.0
aa(lp580
F0.971244752407074
aF0.05129313841462135
aa(lp581
F0.967548668384552
aF0.04205280914902687
aa(lp582
F0.971244752407074
aF-0.0
aa(lp583
F0.971244752407074
aF-0.0
aa(lp584
F0.971244752407074
aF-0.0
aa(lp585
F0.971244752407074
aF-0.0
aa(lp586
F0.971244752407074
aF-0.0
aa(lp587
F0.971244752407074
aF-0.0
aa(lp588
F0.971244752407074
aF-0.0
aa(lp589
F0.971244752407074
aF-0.0
aa(lp590
F0.971244752407074
aF-0.0
aa(lp591
F0.971244752407074
aF-0.0
aa(lp592
F0.971244752407074
aF-0.0
aa(lp593
F0.971244752407074
aF-0.0
aa(lp594
F0.971244752407074
aF-0.0
aa(lp595
F0.971244752407074
aF-0.0
aa(lp596
F0.971244752407074
aF-0.0
aa(lp597
F0.971244752407074
aF-0.0
aa(lp598
F0.971244752407074
aF-0.0
aa(lp599
F0.971244752407074
aF-0.0
aa(lp600
F0.971244752407074
aF-0.0
aa(lp601
F0.971244752407074
aF-0.0
aa(lp602
F0.971244752407074
aF-0.0
aa(lp603
F0.971244752407074
aF-0.0
aa(lp604
F0.971244752407074
aF-0.0
aa(lp605
F0.971244752407074
aF-0.0
aa(lp606
F0.971244752407074
aF-0.0
aa(lp607
F0.971244752407074
aF-0.0
aa(lp608
F0.971244752407074
aF-0.0
aa(lp609
F0.971244752407074
aF-0.0
aa(lp610
F0.971244752407074
aF-0.0
aa(lp611
F0.971244752407074
aF-0.0
aa(lp612
F0.971244752407074
aF-0.0
aa(lp613
F0.971244752407074
aF-0.03649165853857994
aa(lp614
F0.971244752407074
aF-0.03649165853857994
aa(lp615
F0.971244752407074
aF-0.012466811574995518
aa(lp616
F0.971244752407074
aF-0.0
aa(lp617
F0.971244752407074
aF-0.0
aa(lp618
F0.971244752407074
aF-0.0
aa(lp619
F0.971244752407074
aF-0.0
aa(lp620
F0.971244752407074
aF-0.0
aa(lp621
F0.971244752407074
aF-0.0
aa(lp622
F0.971244752407074
aF-0.0
aa(lp623
F0.971244752407074
aF-0.0
aa(lp624
F0.971244752407074
aF-0.0
aa(lp625
F0.971244752407074
aF-0.0
aa(lp626
F0.971244752407074
aF-0.0
aa(lp627
F0.971244752407074
aF-0.0
aa(lp628
F0.971244752407074
aF-0.0
aa(lp629
F1.0
aF-0.0
aa(lp630
F1.0
aF-0.0
aa(lp631
F1.0
aF-0.0
aa(lp632
F1.0
aF-0.0
aa(lp633
F0.982299268245697
aF-0.0
aa(lp634
F0.9786370396614075
aF-0.0
aa(lp635
F0.982299268245697
aF-0.0
aa(lp636
F0.982299268245697
aF-0.0
aa(lp637
F0.982299268245697
aF-0.0
aa(lp638
F0.982299268245697
aF-0.001395374070852995
aa(lp639
F0.982299268245697
aF-0.12335073202848434
aa(lp640
F0.9786370396614075
aF-0.13628718256950378
aa(lp641
F0.982299268245697
aF-0.1418144255876541
aa(lp642
F0.9786370396614075
aF-0.14737558364868164
aa(lp643
F0.9786370396614075
aF-0.15291976928710938
aa(lp644
F0.9786370396614075
aF-0.1584639698266983
aa(lp645
F0.9786370396614075
aF-0.1584639698266983
aa(lp646
F0.9786370396614075
aF-0.0
aa(lp647
F0.982299268245697
aF-0.0
aa(lp648
F0.982299268245697
aF-0.0
aa(lp649
F0.9786370396614075
aF-0.0
aa(lp650
F0.982299268245697
aF-0.0
aa(lp651
F0.9786370396614075
aF-0.0
aa(lp652
F0.982299268245697
aF0.09934283792972565
aa(lp653
F0.982299268245697
aF0.21760205924510956
aa(lp654
F0.9786370396614075
aF0.2231462597846985
aa(lp655
F0.9786370396614075
aF0.3026130497455597
aa(lp656
F0.9786370396614075
aF0.2859804630279541
aa(lp657
F0.982299268245697
aF0.3340301811695099
aa(lp658
F0.9786370396614075
aF-0.0
aa(lp659
F0.9786370396614075
aF-0.2064967155456543
aa(lp660
F0.982299268245697
aF-0.0
aa(lp661
F0.9786370396614075
aF-0.062364574521780014
aa(lp662
F0.982299268245697
aF-0.0
aa(lp663
F0.982299268245697
aF-0.0
aa(lp664
F0.982299268245697
aF-0.0
aa(lp665
F0.9786370396614075
aF-0.0
aa(lp666
F0.9786370396614075
aF-0.0
aa(lp667
F0.982299268245697
aF0.04944507032632828
aa(lp668
F0.9786370396614075
aF0.06790877133607864
aa(lp669
F0.9786370396614075
aF0.06790877133607864
aa(lp670
F0.9786370396614075
aF0.03650861606001854
aa(lp671
F0.982299268245697
aF-0.0
aa(lp672
F0.982299268245697
aF-0.0
aa(lp673
F0.982299268245697
aF-0.0
aa(lp674
F0.9786370396614075
aF-0.0
aa(lp675
F0.9786370396614075
aF-0.0
aa(lp676
F0.9786370396614075
aF-0.0
aa(lp677
F0.9786370396614075
aF-0.0
aa(lp678
F0.9786370396614075
aF-0.0
aa(lp679
F0.9786370396614075
aF-0.0
aa(lp680
F0.9786370396614075
aF-0.0
aa(lp681
F0.9786370396614075
aF-0.008770680986344814
aa(lp682
F0.9786370396614075
aF-0.008770680986344814
aa(lp683
F0.982299268245697
aF-0.0
aa(lp684
F0.9786370396614075
aF-0.0
aa(lp685
F0.9786370396614075
aF-0.0
aa(lp686
F0.9786370396614075
aF-0.0
aa(lp687
F0.9786370396614075
aF-0.0
aa(lp688
F0.982299268245697
aF-0.0
aa(lp689
F0.982299268245697
aF-0.0
aa(lp690
F0.982299268245697
aF-0.0
aa(lp691
F0.971244752407074
aF-0.0
aa(lp692
F0.971244752407074
aF-0.0
aa(lp693
F0.971244752407074
aF-0.0
aa(lp694
F0.971244752407074
aF-0.0
aa(lp695
F0.971244752407074
aF-0.0
aa(lp696
F0.971244752407074
aF-0.0
aa(lp697
F0.967548668384552
aF0.18804997205734253
aa(lp698
F0.967548668384552
aF0.21760205924510956
aa(lp699
F0.967548668384552
aF0.22869044542312622
aa(lp700
F0.971244752407074
aF0.23423464596271515
aa(lp701
F0.971244752407074
aF0.04574894160032272
aa(lp702
F0.971244752407074
aF0.04944507032632828
aa(lp703
F0.971244752407074
aF0.13259105384349823
aa(lp704
F0.971244752407074
aF0.38577601313591003
aa(lp705
F0.967548668384552
aF0.05314120277762413
aa(lp706
F0.967548668384552
aF0.023572158068418503
aa(lp707
F0.971244752407074
aF0.018027961254119873
aa(lp708
F0.971244752407074
aF-0.0
aa(lp709
F0.971244752407074
aF-0.06790877133607864
aa(lp710
F0.971244752407074
aF-0.25639447569847107
aa(lp711
F0.971244752407074
aF-0.3007480502128601
aa(lp712
F0.967548668384552
aF-0.33770933747291565
aa(lp713
F0.967548668384552
aF-0.33770933747291565
aa(lp714
F0.967548668384552
aF-0.33770933747291565
aa(lp715
F0.967548668384552
aF-0.33770933747291565
aa(lp716
F0.971244752407074
aF-0.3561899960041046
aa(lp717
F0.971244752407074
aF-0.3561899960041046
aa(lp718
F0.967548668384552
aF-0.0
aa(lp719
F0.971244752407074
aF0.3802148401737213
aa(lp720
F0.971244752407074
aF0.2212981879711151
aa(lp721
F0.971244752407074
aF0.2212981879711151
aa(lp722
F0.971244752407074
aF0.2212981879711151
aa(lp723
F0.971244752407074
aF0.2841324210166931
aa(lp724
F0.971244752407074
aF0.2841324210166931
aa(lp725
F0.971244752407074
aF0.2841324210166931
aa(lp726
F0.971244752407074
aF0.04205280914902687
aa(lp727
F0.967548668384552
aF0.03650861606001854
aa(lp728
F0.971244752407074
aF0.038356680423021317
aa(lp729
F0.971244752407074
aF0.038356680423021317
aa(lp730
F0.967548668384552
aF0.47261810302734375
aa(lp731
F0.971244752407074
aF0.5
aa(lp732
F0.971244752407074
aF0.48185843229293823
aa(lp733
F0.971244752407074
aF0.01063570100814104
aa(lp734
F0.9859954118728638
aF-0.20834477245807648
aa(lp735
F0.9859954118728638
aF-0.4264164865016937
aa(lp736
F0.9859954118728638
aF-0.4264164865016937
aa(lp737
F1.0
aF-0.5
aa(lp738
F1.0
aF-0.5
aa(lp739
F1.0
aF-0.5
aa(lp740
F1.0
aF-0.5
aa(lp741
F1.0
aF-0.5
aa(lp742
F1.0
aF-0.5
aa(lp743
F1.0
aF-0.5
aa(lp744
F1.0
aF-0.5
aa(lp745
F0.997049868106842
aF-0.5
aa(lp746
F0.997049868106842
aF0.5
aa(lp747
F0.997049868106842
aF0.5
aa(lp748
F0.997049868106842
aF0.5
aa(lp749
F0.997049868106842
aF0.5
aa(lp750
F0.9933876395225525
aF-0.0
aa(lp751
F0.9933876395225525
aF0.5
aa(lp752
F0.9896914958953857
aF0.5
aa(lp753
F0.9896914958953857
aF0.23423464596271515
aa(lp754
F0.9896914958953857
aF0.3395743668079376
aa(lp755
F0.9896914958953857
aF0.10487007349729538
aa(lp756
F0.9896914958953857
aF0.20836172997951508
aa(lp757
F0.9896914958953857
aF0.17140042781829834
aa(lp758
F0.9896914958953857
aF-0.010618746280670166
aa(lp759
F0.9933876395225525
aF-0.17877572774887085
aa(lp760
F0.9896914958953857
aF-0.14737558364868164
aa(lp761
F0.9896914958953857
aF-0.0
aa(lp762
F0.9896914958953857
aF-0.0
aa(lp763
F0.9896914958953857
aF-0.006922615226358175
aa(lp764
F0.9896914958953857
aF-0.034643594175577164
aa(lp765
F0.9896914958953857
aF-0.034643594175577164
aa(lp766
F0.9896914958953857
aF-0.034643594175577164
aa(lp767
F0.9896914958953857
aF-0.034643594175577164
aa(lp768
F0.9896914958953857
aF-0.0
aa(lp769
F0.9933876395225525
aF-0.023555202409625053
aa(lp770
F1.0
aF-0.06421264261007309
aa(lp771
F1.0
aF-0.13628718256950378
aa(lp772
F1.0
aF-0.13628718256950378
aa(lp773
F1.0
aF-0.27302706241607666
aa(lp774
F1.0
aF-0.28041931986808777
aa(lp775
F1.0
aF-0.3192287087440491
aa(lp776
F1.0
aF-0.3192287087440491
aa(lp777
F1.0
aF-0.20464864373207092
aa(lp778
F1.0
aF-0.16400817036628723
aa(lp779
F1.0
aF0.09193361550569534
aa(lp780
F1.0
aF0.25641143321990967
aa(lp781
F1.0
aF0.038356680423021317
aa(lp782
F1.0
aF0.11043122410774231
aa(lp783
F1.0
aF0.16402511298656464
aa(lp784
F1.0
aF0.16402511298656464
aa(lp785
F1.0
aF0.16402511298656464
aa(lp786
F1.0
aF0.09193361550569534
aa(lp787
F1.0
aF0.09749476611614227
aa(lp788
F1.0
aF0.1030389666557312
aa(lp789
F1.0
aF0.1030389666557312
aa(lp790
F1.0
aF0.1030389666557312
aa(lp791
F1.0
aF-0.0
aa(lp792
F1.0
aF-0.0
aa(lp793
F1.0
aF-0.0
aa(lp794
F1.0
aF-0.0
aa(lp795
F1.0
aF-0.0
aa(lp796
F1.0
aF0.11043122410774231
aa(lp797
F1.0
aF0.23423464596271515
aa(lp798
F1.0
aF0.32109370827674866
aa(lp799
F1.0
aF0.32109370827674866
aa(lp800
F1.0
aF0.32109370827674866
aa(lp801
F1.0
aF0.32109370827674866
aa(lp802
F1.0
aF-0.0
aa(lp803
F1.0
aF-0.008770680986344814
aa(lp804
F1.0
aF-0.02540326863527298
aa(lp805
F1.0
aF-0.1030220091342926
aa(lp806
F1.0
aF-0.10856620967388153
aa(lp807
F1.0
aF-0.04942811653017998
aa(lp808
F1.0
aF-0.05497231334447861
aa(lp809
F1.0
aF-0.09008555114269257
aa(lp810
F1.0
aF-0.09008555114269257
aa(lp811
F1.0
aF-0.09008555114269257
aa(lp812
F1.0
aF-0.09008555114269257
aa(lp813
F1.0
aF-0.09008555114269257
aa(lp814
F1.0
aF-0.08454135805368423
aa(lp815
F1.0
aF-0.0
aa(lp816
F1.0
aF-0.0
aa(lp817
F1.0
aF-0.04203585535287857
aa(lp818
F1.0
aF-0.0475800521671772
aa(lp819
F1.0
aF-0.0475800521671772
aa(lp820
F1.0
aF-0.08638942241668701
aa(lp821
F1.0
aF-0.09747781604528427
aa(lp822
F1.0
aF-0.12519879639148712
aa(lp823
F1.0
aF-0.12519879639148712
aa(lp824
F1.0
aF-0.12519879639148712
aa(lp825
F1.0
aF-0.12519879639148712
aa(lp826
F1.0
aF-0.0
aa(lp827
F1.0
aF-0.0
aa(lp828
F1.0
aF-0.0050745499320328236
aa(lp829
F1.0
aF-0.0050745499320328236
aa(lp830
F1.0
aF-0.0050745499320328236
aa(lp831
F1.0
aF-0.05497231334447861
aa(lp832
F1.0
aF-0.0716049000620842
aa(lp833
F1.0
aF-0.11595846712589264
aa(lp834
F1.0
aF-0.14552751183509827
aa(lp835
F1.0
aF-0.19356025755405426
aa(lp836
F1.0
aF-0.1991214007139206
aa(lp837
F1.0
aF-0.21019284427165985
aa(lp838
F1.0
aF-0.21019284427165985
aa(lp839
F1.0
aF-0.18803301453590393
aa(lp840
F1.0
aF-0.006922615226358175
aa(lp841
F1.0
aF-0.0
aa(lp842
F1.0
aF-0.0
aa(lp843
F1.0
aF-0.0
aa(lp844
F1.0
aF0.2231462597846985
aa(lp845
F1.0
aF0.2231462597846985
aa(lp846
F1.0
aF0.2231462597846985
aa(lp847
F1.0
aF-0.14737558364868164
aa(lp848
F1.0
aF-0.29705190658569336
aa(lp849
F1.0
aF-0.3155156075954437
aa(lp850
F1.0
aF-0.008770680986344814
aa(lp851
F1.0
aF-0.0
aa(lp852
F1.0
aF0.09749476611614227
aa(lp853
F1.0
aF0.1436794400215149
aa(lp854
F1.0
aF0.22499431669712067
aa(lp855
F1.0
aF0.2379307746887207
aa(lp856
F1.0
aF0.24901917576789856
aa(lp857
F1.0
aF0.2545633614063263
aa(lp858
F1.0
aF0.3173806369304657
aa(lp859
F1.0
aF0.32294178009033203
aa(lp860
F1.0
aF0.3395743668079376
aa(lp861
F1.0
aF0.3506627678871155
aa(lp862
F1.0
aF0.3506627678871155
aa(lp863
F1.0
aF0.2878285348415375
aa(lp864
F1.0
aF0.03650861606001854
aa(lp865
F1.0
aF-0.014331831596791744
aa(lp866
F1.0
aF-0.04203585535287857
aa(lp867
F1.0
aF-0.07345296442508698
aa(lp868
F1.0
aF-0.07345296442508698
aa(lp869
F1.0
aF-0.0789802074432373
aa(lp870
F1.0
aF-0.09008555114269257
aa(lp871
F1.0
aF-0.09008555114269257
aa(lp872
F1.0
aF-0.09008555114269257
aa(lp873
F1.0
aF-0.09008555114269257
aa(lp874
F1.0
aF-0.09008555114269257
aa(lp875
F1.0
aF-0.09008555114269257
aa(lp876
F1.0
aF-0.09008555114269257
aa(lp877
F1.0
aF-0.09008555114269257
aa(lp878
F1.0
aF-0.06606070697307587
aa(lp879
F1.0
aF-0.027268288657069206
aa(lp880
F1.0
aF-0.027268288657069206
aa(lp881
F1.0
aF-0.027268288657069206
aa(lp882
F1.0
aF-0.027268288657069206
aa(lp883
F1.0
aF-0.027268288657069206
aa(lp884
F1.0
aF-0.0
aa(lp885
F1.0
aF-0.0
aa(lp886
F1.0
aF-0.04388391971588135
aa(lp887
F1.0
aF-0.07530102878808975
aa(lp888
F1.0
aF-0.03279552981257439
aa(lp889
F1.0
aF-0.0
aa(lp890
F1.0
aF-0.056820377707481384
aa(lp891
F1.0
aF-0.06790877133607864
aa(lp892
F1.0
aF-0.0
aa(lp893
F1.0
aF-0.0
aa(lp894
F1.0
aF-0.0
aa(lp895
F1.0
aF-0.0
aa(lp896
F1.0
aF-0.0032434393651783466
aa(lp897
F1.0
aF-0.008770680986344814
aa(lp898
F1.0
aF-0.006922615226358175
aa(lp899
F1.0
aF-0.012466811574995518
aa(lp900
F1.0
aF-0.0032434393651783466
aa(lp901
F1.0
aF-0.0
aa(lp902
F1.0
aF-0.010618746280670166
aa(lp903
F1.0
aF-0.06051651015877724
aa(lp904
F1.0
aF-0.12335073202848434
aa(lp905
F1.0
aF-0.17877572774887085
aa(lp906
F1.0
aF-0.2527152895927429
aa(lp907
F1.0
aF-0.2693309187889099
aa(lp908
F1.0
aF-0.2693309187889099
aa(lp909
F1.0
aF-0.2693309187889099
aa(lp910
F1.0
aF-0.2693309187889099
aa(lp911
F1.0
aF-0.0
aa(lp912
F1.0
aF-0.0
aa(lp913
F1.0
aF-0.0
aa(lp914
F1.0
aF-0.0
aa(lp915
F1.0
aF0.040204744786024094
aa(lp916
F1.0
aF0.165873184800148
aa(lp917
F1.0
aF0.2065136730670929
aa(lp918
F1.0
aF0.2065136730670929
aa(lp919
F1.0
aF0.21205785870552063
aa(lp920
F1.0
aF0.21760205924510956
aa(lp921
F1.0
aF0.11227928847074509
aa(lp922
F1.0
aF0.04205280914902687
aa(lp923
F1.0
aF0.04205280914902687
aa(lp924
F1.0
aF0.13074299693107605
aa(lp925
F1.0
aF0.14739252626895905
aa(lp926
F1.0
aF0.2139228880405426
aa(lp927
F1.0
aF0.029133308678865433
aa(lp928
F1.0
aF0.029133308678865433
aa(lp929
F1.0
aF0.03096441924571991
aa(lp930
F1.0
aF-0.0
aa(lp931
F0.997049868106842
aF-0.2212812304496765
aa(lp932
F0.997049868106842
aF-0.2915077209472656
aa(lp933
F0.997049868106842
aF-0.36912646889686584
aa(lp934
F0.997049868106842
aF-0.3801978826522827
aa(lp935
F0.997049868106842
aF0.18804997205734253
aa(lp936
F0.9933876395225525
aF0.5
aa(lp937
F0.997049868106842
aF0.5
aa(lp938
F0.997049868106842
aF0.5
aa(lp939
F0.997049868106842
aF0.5
aa(lp940
F0.997049868106842
aF0.3266379237174988
aa(lp941
F0.997049868106842
aF-0.0
aa(lp942
F0.9638525247573853
aF-0.0
aa(lp943
F0.967548668384552
aF-0.0
aa(lp944
F0.967548668384552
aF-0.0
aa(lp945
F0.967548668384552
aF-0.0
aa(lp946
F0.967548668384552
aF-0.0
aa(lp947
F0.967548668384552
aF-0.08638942241668701
aa(lp948
F0.971244752407074
aF-0.25086724758148193
aa(lp949
F0.971244752407074
aF-0.3728225827217102
aa(lp950
F0.967548668384552
aF-0.38391098380088806
aa(lp951
F0.967548668384552
aF-0.38391098380088806
aa(lp952
F0.967548668384552
aF-0.4116319715976715
aa(lp953
F0.967548668384552
aF-0.4116319715976715
aa(lp954
F0.967548668384552
aF-0.4116319715976715
aa(lp955
F0.967548668384552
aF-0.4116319715976715
aa(lp956
F0.971244752407074
aF-0.0032434393651783466
aa(lp957
F0.971244752407074
aF-0.0
aa(lp958
F0.971244752407074
aF0.09193361550569534
aa(lp959
F0.971244752407074
aF0.2212981879711151
aa(lp960
F0.971244752407074
aF0.2212981879711151
aa(lp961
F0.971244752407074
aF0.2212981879711151
aa(lp962
F0.971244752407074
aF0.2212981879711151
aa(lp963
F0.971244752407074
aF0.2212981879711151
aa(lp964
F0.971244752407074
aF0.2212981879711151
aa(lp965
F0.971244752407074
aF0.2212981879711151
aa(lp966
F0.971244752407074
aF0.2212981879711151
aa(lp967
F0.971244752407074
aF0.03096441924571991
aa(lp968
F0.971244752407074
aF0.014331831596791744
aa(lp969
F0.971244752407074
aF0.008787635713815689
aa(lp970
F0.971244752407074
aF0.0032603940926492214
aa(lp971
F0.971244752407074
aF0.09749476611614227
aa(lp972
F0.971244752407074
aF0.17140042781829834
aa(lp973
F0.971244752407074
aF0.02542022243142128
aa(lp974
F0.971244752407074
aF0.008787635713815689
aa(lp975
F0.971244752407074
aF0.008787635713815689
aa(lp976
F0.971244752407074
aF0.008787635713815689
aa(lp977
F0.971244752407074
aF0.008787635713815689
aa(lp978
F0.971244752407074
aF0.008787635713815689
aa(lp979
F0.971244752407074
aF0.008787635713815689
aa(lp980
F0.971244752407074
aF0.008787635713815689
aa(lp981
F0.971244752407074
aF0.008787635713815689
aa(lp982
F0.971244752407074
aF0.008787635713815689
aa(lp983
F0.971244752407074
aF0.008787635713815689
aa(lp984
F0.971244752407074
aF0.014331831596791744
aa(lp985
F0.971244752407074
aF0.03096441924571991
aa(lp986
F0.971244752407074
aF0.2859804630279541
aa(lp987
F0.967548668384552
aF0.29706886410713196
aa(lp988
F0.971244752407074
aF0.3321821093559265
aa(lp989
F0.971244752407074
aF0.3321821093559265
aa(lp990
F0.971244752407074
aF0.3321821093559265
aa(lp991
F0.971244752407074
aF0.4282645583152771
aa(lp992
F0.971244752407074
aF0.4282645583152771
aa(lp993
F0.971244752407074
aF0.4282645583152771
aa(lp994
F0.9749408960342407
aF0.038356680423021317
aa(lp995
F0.971244752407074
aF-0.06421264261007309
aa(lp996
F0.971244752407074
aF-0.21943317353725433
aa(lp997
F0.971244752407074
aF-0.5
aa(lp998
F0.971244752407074
aF-0.5
aa(lp999
F0.971244752407074
aF-0.5
aa(lp1000
F0.971244752407074
aF-0.5
aa(lp1001
F0.971244752407074
aF-0.5
aa(lp1002
F0.971244752407074
aF-0.5
aa(lp1003
F0.971244752407074
aF-0.5
aa(lp1004
F0.971244752407074
aF-0.5
aa(lp1005
F0.971244752407074
aF-0.006922615226358175
aa(lp1006
F0.971244752407074
aF-0.0
aa(lp1007
F0.971244752407074
aF0.3192456364631653
aa(lp1008
F0.971244752407074
aF0.38577601313591003
aa(lp1009
F0.971244752407074
aF0.5
aa(lp1010
F0.971244752407074
aF0.5
aa(lp1011
F0.971244752407074
aF0.5
aa(lp1012
F0.971244752407074
aF0.2841324210166931
aa(lp1013
F0.971244752407074
aF0.3026130497455597
aa(lp1014
F0.971244752407074
aF0.37099146842956543
aa(lp1015
F0.971244752407074
aF0.18433688580989838
aa(lp1016
F0.971244752407074
aF0.29706886410713196
aa(lp1017
F0.971244752407074
aF0.2139228880405426
aa(lp1018
F0.971244752407074
aF-0.0
aa(lp1019
F0.971244752407074
aF-0.014331831596791744
aa(lp1020
F0.971244752407074
aF-0.17324848473072052
aa(lp1021
F0.971244752407074
aF-0.17324848473072052
aa(lp1022
F0.971244752407074
aF-0.17877572774887085
aa(lp1023
F0.971244752407074
aF-0.0
aa(lp1024
F0.971244752407074
aF-0.0
aa(lp1025
F0.9749408960342407
aF-0.006922615226358175
aa(lp1026
F0.971244752407074
aF-0.11411040276288986
aa(lp1027
F0.971244752407074
aF-0.14737558364868164
aa(lp1028
F0.971244752407074
aF-0.15291976928710938
aa(lp1029
F0.971244752407074
aF-0.15291976928710938
aa(lp1030
F0.971244752407074
aF-0.15291976928710938
aa(lp1031
F0.971244752407074
aF-0.0
aa(lp1032
F0.971244752407074
aF0.1030389666557312
aa(lp1033
F0.971244752407074
aF0.13074299693107605
aa(lp1034
F0.971244752407074
aF0.13630414009094238
aa(lp1035
F0.971244752407074
aF0.04205280914902687
aa(lp1036
F0.971244752407074
aF0.04205280914902687
aa(lp1037
F0.971244752407074
aF0.04205280914902687
aa(lp1038
F0.971244752407074
aF-0.0
aa(lp1039
F0.971244752407074
aF-0.0
aa(lp1040
F0.971244752407074
aF-0.0
aa(lp1041
F0.971244752407074
aF-0.0
aa(lp1042
F0.971244752407074
aF-0.0
aa(lp1043
F0.971244752407074
aF-0.0
aa(lp1044
F0.971244752407074
aF-0.0
aa(lp1045
F0.971244752407074
aF-0.0
aa(lp1046
F0.971244752407074
aF-0.0
aa(lp1047
F0.971244752407074
aF-0.0
aa(lp1048
F0.971244752407074
aF-0.0
aa(lp1049
F0.971244752407074
aF-0.0
aa(lp1050
F0.971244752407074
aF-0.0
aa(lp1051
F0.971244752407074
aF-0.0
aa(lp1052
F0.971244752407074
aF-0.0
aa(lp1053
F0.971244752407074
aF-0.04203585535287857
aa(lp1054
F0.971244752407074
aF-0.06606070697307587
aa(lp1055
F0.971244752407074
aF-0.04388391971588135
aa(lp1056
F0.971244752407074
aF-0.0
aa(lp1057
F0.971244752407074
aF-0.0
aa(lp1058
F0.971244752407074
aF-0.0
aa(lp1059
F0.971244752407074
aF-0.0
aa(lp1060
F0.971244752407074
aF-0.0
aa(lp1061
F0.971244752407074
aF0.03650861606001854
aa(lp1062
F0.971244752407074
aF0.0716218575835228
aa(lp1063
F0.971244752407074
aF0.08271024376153946
aa(lp1064
F0.971244752407074
aF0.09378168731927872
aa(lp1065
F0.971244752407074
aF0.09934283792972565
aa(lp1066
F0.971244752407074
aF0.09934283792972565
aa(lp1067
F0.971244752407074
aF0.10487007349729538
aa(lp1068
F0.971244752407074
aF0.10487007349729538
aa(lp1069
F0.971244752407074
aF0.11043122410774231
aa(lp1070
F0.971244752407074
aF0.11043122410774231
aa(lp1071
F0.971244752407074
aF0.11597542464733124
aa(lp1072
F0.971244752407074
aF0.11597542464733124
aa(lp1073
F0.971244752407074
aF0.040204744786024094
aa(lp1074
F0.971244752407074
aF0.040204744786024094
aa(lp1075
F0.967548668384552
aF-0.0
aa(lp1076
F0.971244752407074
aF-0.014331831596791744
aa(lp1077
F0.971244752407074
aF-0.014331831596791744
aa(lp1078
F0.971244752407074
aF-0.014331831596791744
aa(lp1079
F0.971244752407074
aF-0.04388391971588135
aa(lp1080
F0.971244752407074
aF-0.06606070697307587
aa(lp1081
F0.971244752407074
aF-0.0716049000620842
aa(lp1082
F0.971244752407074
aF-0.08823748677968979
aa(lp1083
F0.971244752407074
aF-0.08823748677968979
aa(lp1084
F0.971244752407074
aF-0.08823748677968979
aa(lp1085
F0.971244752407074
aF-0.08823748677968979
aa(lp1086
F0.971244752407074
aF-0.08823748677968979
aa(lp1087
F0.971244752407074
aF-0.0
aa(lp1088
F0.971244752407074
aF-0.0
aa(lp1089
F0.971244752407074
aF-0.0
aa(lp1090
F0.971244752407074
aF-0.0
aa(lp1091
F0.971244752407074
aF-0.0
aa(lp1092
F0.971244752407074
aF-0.0
aa(lp1093
F0.971244752407074
aF-0.0
aa(lp1094
F0.971244752407074
aF-0.0
aa(lp1095
F0.971244752407074
aF-0.001395374070852995
aa(lp1096
F0.971244752407074
aF-0.014331831596791744
aa(lp1097
F0.971244752407074
aF-0.10485312342643738
aa(lp1098
F0.971244752407074
aF-0.19540831446647644
aa(lp1099
F0.971244752407074
aF-0.2693309187889099
aa(lp1100
F0.971244752407074
aF-0.5
aa(lp1101
F0.971244752407074
aF-0.5
aa(lp1102
F0.971244752407074
aF-0.5
aa(lp1103
F0.971244752407074
aF-0.5
aa(lp1104
F0.971244752407074
aF-0.5
aa(lp1105
F0.971244752407074
aF-0.29705190658569336
aa(lp1106
F0.971244752407074
aF-0.0
aa(lp1107
F0.971244752407074
aF0.2231462597846985
aa(lp1108
F0.971244752407074
aF0.2711959481239319
aa(lp1109
F0.971244752407074
aF0.48001039028167725
aa(lp1110
F0.971244752407074
aF0.5
aa(lp1111
F0.971244752407074
aF0.5
aa(lp1112
F0.971244752407074
aF0.5
aa(lp1113
F0.971244752407074
aF0.43380874395370483
aa(lp1114
F0.971244752407074
aF0.043900877237319946
aa(lp1115
F0.971244752407074
aF-0.0
aa(lp1116
F0.971244752407074
aF0.2859804630279541
aa(lp1117
F0.971244752407074
aF0.06977379322052002
aa(lp1118
F0.971244752407074
aF0.31370145082473755
aa(lp1119
F0.971244752407074
aF0.038356680423021317
aa(lp1120
F0.971244752407074
aF-0.0
aa(lp1121
F0.971244752407074
aF-0.0
aa(lp1122
F0.971244752407074
aF-0.0
aa(lp1123
F0.971244752407074
aF-0.0
aa(lp1124
F0.971244752407074
aF-0.0
aa(lp1125
F0.971244752407074
aF-0.0
aa(lp1126
F0.971244752407074
aF-0.0
aa(lp1127
F0.971244752407074
aF-0.0
aa(lp1128
F0.971244752407074
aF-0.0
aa(lp1129
F0.971244752407074
aF-0.0
aa(lp1130
F0.971244752407074
aF-0.0
aa(lp1131
F0.971244752407074
aF-0.0
aa(lp1132
F0.971244752407074
aF-0.0
aa(lp1133
F0.971244752407074
aF-0.0
aa(lp1134
F0.971244752407074
aF-0.0
aa(lp1135
F0.971244752407074
aF-0.0
aa(lp1136
F0.971244752407074
aF0.001395374070852995
aa(lp1137
F0.971244752407074
aF0.07716605067253113
aa(lp1138
F0.971244752407074
aF0.23423464596271515
aa(lp1139
F0.971244752407074
aF0.2619556188583374
aa(lp1140
F0.971244752407074
aF0.29706886410713196
aa(lp1141
F0.971244752407074
aF0.29706886410713196
aa(lp1142
F0.971244752407074
aF0.04574894160032272
aa(lp1143
F0.971244752407074
aF0.040204744786024094
aa(lp1144
F0.971244752407074
aF0.021724091842770576
aa(lp1145
F0.971244752407074
aF-0.006922615226358175
aa(lp1146
F0.971244752407074
aF-0.09008555114269257
aa(lp1147
F0.971244752407074
aF-0.15659895539283752
aa(lp1148
F0.971244752407074
aF-0.0
aa(lp1149
F0.971244752407074
aF0.038356680423021317
aa(lp1150
F0.971244752407074
aF0.18618494272232056
aa(lp1151
F0.971244752407074
aF0.19172914326190948
aa(lp1152
F0.971244752407074
aF-0.001395374070852995
aa(lp1153
F0.971244752407074
aF-0.09378168731927872
aa(lp1154
F0.9749408960342407
aF-0.12519879639148712
aa(lp1155
F0.971244752407074
aF-0.1510717123746872
aa(lp1156
F0.971244752407074
aF-0.17877572774887085
aa(lp1157
F0.971244752407074
aF-0.21943317353725433
aa(lp1158
F0.971244752407074
aF-0.21943317353725433
aa(lp1159
F0.971244752407074
aF-0.230521559715271
aa(lp1160
F0.971244752407074
aF-0.26563480496406555
aa(lp1161
F0.971244752407074
aF-0.26563480496406555
aa(lp1162
F0.971244752407074
aF-0.2711789906024933
aa(lp1163
F0.971244752407074
aF-0.2711789906024933
aa(lp1164
F0.971244752407074
aF-0.2711789906024933
aa(lp1165
F0.971244752407074
aF-0.2711789906024933
aa(lp1166
F0.971244752407074
aF-0.2711789906024933
aa(lp1167
F0.971244752407074
aF-0.1270468533039093
aa(lp1168
F0.967548668384552
aF0.2527322471141815
aa(lp1169
F0.971244752407074
aF0.2841324210166931
aa(lp1170
F0.971244752407074
aF0.03650861606001854
aa(lp1171
F0.971244752407074
aF0.03096441924571991
aa(lp1172
F0.971244752407074
aF0.2139228880405426
aa(lp1173
F0.971244752407074
aF0.2139228880405426
aa(lp1174
F0.971244752407074
aF0.2139228880405426
aa(lp1175
F0.971244752407074
aF-0.006922615226358175
aa(lp1176
F0.971244752407074
aF-0.27302706241607666
aa(lp1177
F0.971244752407074
aF-0.3192287087440491
aa(lp1178
F0.971244752407074
aF-0.3192287087440491
aa(lp1179
F0.971244752407074
aF-0.3192287087440491
aa(lp1180
F0.971244752407074
aF-0.0
aa(lp1181
F0.971244752407074
aF0.1898980289697647
aa(lp1182
F0.971244752407074
aF0.2212981879711151
aa(lp1183
F0.971244752407074
aF0.2212981879711151
aa(lp1184
F0.971244752407074
aF0.2212981879711151
aa(lp1185
F0.971244752407074
aF0.2212981879711151
aa(lp1186
F0.971244752407074
aF0.23979580402374268
aa(lp1187
F0.971244752407074
aF0.25641143321990967
aa(lp1188
F0.971244752407074
aF0.31370145082473755
aa(lp1189
F0.971244752407074
aF0.33031708002090454
aa(lp1190
F0.971244752407074
aF0.3358782231807709
aa(lp1191
F0.971244752407074
aF0.34325355291366577
aa(lp1192
F0.971244752407074
aF0.34325355291366577
aa(lp1193
F0.971244752407074
aF0.134456068277359
aa(lp1194
F0.971244752407074
aF0.134456068277359
aa(lp1195
F0.971244752407074
aF-0.0
aa(lp1196
F0.971244752407074
aF-0.11226233839988708
aa(lp1197
F0.971244752407074
aF-0.16216009855270386
aa(lp1198
F0.971244752407074
aF-0.2064967155456543
aa(lp1199
F0.971244752407074
aF-0.2471541464328766
aa(lp1200
F0.971244752407074
aF-0.2693309187889099
aa(lp1201
F0.971244752407074
aF-0.27487513422966003
aa(lp1202
F0.971244752407074
aF-0.27487513422966003
aa(lp1203
F0.971244752407074
aF-0.2859635055065155
aa(lp1204
F0.971244752407074
aF-0.2859635055065155
aa(lp1205
F0.971244752407074
aF-0.0
aa(lp1206
F0.971244752407074
aF-0.04203585535287857
aa(lp1207
F0.971244752407074
aF-0.17877572774887085
aa(lp1208
F0.971244752407074
aF-0.19540831446647644
aa(lp1209
F0.971244752407074
aF-0.19540831446647644
aa(lp1210
F0.971244752407074
aF-0.0
aa(lp1211
F0.971244752407074
aF0.09378168731927872
aa(lp1212
F0.971244752407074
aF0.09378168731927872
aa(lp1213
F0.967548668384552
aF0.09934283792972565
aa(lp1214
F0.967548668384552
aF0.09934283792972565
aa(lp1215
F0.967548668384552
aF0.09934283792972565
aa(lp1216
F0.967548668384552
aF0.09934283792972565
aa(lp1217
F0.967548668384552
aF0.09934283792972565
aa(lp1218
F0.971244752407074
aF-0.0
aa(lp1219
F0.971244752407074
aF-0.0
aa(lp1220
F0.971244752407074
aF-0.0
aa(lp1221
F0.971244752407074
aF0.027268288657069206
aa(lp1222
F0.971244752407074
aF0.09378168731927872
aa(lp1223
F0.971244752407074
aF0.2952207922935486
aa(lp1224
F0.971244752407074
aF0.09934283792972565
aa(lp1225
F0.971244752407074
aF0.16955235600471497
aa(lp1226
F0.971244752407074
aF0.03650861606001854
aa(lp1227
F0.971244752407074
aF0.03650861606001854
aa(lp1228
F0.971244752407074
aF-0.0
aa(lp1229
F0.971244752407074
aF-0.0
aa(lp1230
F0.971244752407074
aF-0.0032434393651783466
aa(lp1231
F0.971244752407074
aF-0.0
aa(lp1232
F0.971244752407074
aF-0.0
aa(lp1233
F0.971244752407074
aF-0.0
aa(lp1234
F0.971244752407074
aF-0.0
aa(lp1235
F0.971244752407074
aF0.0789971649646759
aa(lp1236
F0.971244752407074
aF0.08455831557512283
aa(lp1237
F0.971244752407074
aF0.08455831557512283
aa(lp1238
F0.971244752407074
aF0.08455831557512283
aa(lp1239
F0.971244752407074
aF0.08455831557512283
aa(lp1240
F1.0
aF0.038356680423021317
aa(lp1241
F1.0
aF0.03650861606001854
aa(lp1242
F1.0
aF0.038356680423021317
aa(lp1243
F1.0
aF0.038356680423021317
aa(lp1244
F1.0
aF-0.014331831596791744
aa(lp1245
F1.0
aF-0.17877572774887085
aa(lp1246
F1.0
aF-0.21575398743152618
aa(lp1247
F1.0
aF-0.018011007457971573
aa(lp1248
F1.0
aF-0.0
aa(lp1249
F1.0
aF-0.0
aa(lp1250
F1.0
aF-0.0
aa(lp1251
F1.0
aF-0.0
aa(lp1252
F1.0
aF-0.0
aa(lp1253
F0.9786370396614075
aF-0.0
aa(lp1254
F0.9786370396614075
aF-0.0
aa(lp1255
F0.9786370396614075
aF-0.0
aa(lp1256
F0.982299268245697
aF-0.0
aa(lp1257
F0.982299268245697
aF-0.0
aa(lp1258
F0.982299268245697
aF-0.0
aa(lp1259
F0.982299268245697
aF-0.0
aa(lp1260
F0.9786370396614075
aF-0.0
aa(lp1261
F0.9786370396614075
aF-0.0
aa(lp1262
F0.9786370396614075
aF0.07716605067253113
aa(lp1263
F0.9786370396614075
aF0.16402511298656464
aa(lp1264
F0.982299268245697
aF0.1898980289697647
aa(lp1265
F0.9786370396614075
aF0.1991214007139206
aa(lp1266
F0.982299268245697
aF0.04205280914902687
aa(lp1267
F0.9786370396614075
aF0.12336768209934235
aa(lp1268
F0.9786370396614075
aF0.12336768209934235
aa(lp1269
F0.9786370396614075
aF-0.0
aa(lp1270
F0.9786370396614075
aF-0.04388391971588135
aa(lp1271
F0.982299268245697
aF-0.09747781604528427
aa(lp1272
F0.9786370396614075
aF-0.1030220091342926
aa(lp1273
F0.9786370396614075
aF-0.15475088357925415
aa(lp1274
F0.9786370396614075
aF-0.001395374070852995
aa(lp1275
F0.982299268245697
aF-0.14552751183509827
aa(lp1276
F0.9786370396614075
aF-0.17140042781829834
aa(lp1277
F0.9786370396614075
aF-0.008770680986344814
aa(lp1278
F0.9786370396614075
aF-0.0032434393651783466
aa(lp1279
F0.9786370396614075
aF-0.0
aa(lp1280
F0.9786370396614075
aF-0.0
aa(lp1281
F0.9786370396614075
aF-0.0
aa(lp1282
F0.9786370396614075
aF-0.0
aa(lp1283
F0.9786370396614075
aF-0.0
aa(lp1284
F0.9786370396614075
aF-0.0
aa(lp1285
F0.9786370396614075
aF-0.0
aa(lp1286
F0.9786370396614075
aF-0.0
aa(lp1287
F0.9786370396614075
aF-0.0
aa(lp1288
F0.9786370396614075
aF-0.0789802074432373
aa(lp1289
F0.9786370396614075
aF-0.0789802074432373
aa(lp1290
F0.9786370396614075
aF-0.010618746280670166
aa(lp1291
F0.982299268245697
aF-0.0
aa(lp1292
F0.982299268245697
aF-0.0
aa(lp1293
F0.982299268245697
aF-0.0
aa(lp1294
F0.982299268245697
aF-0.0
aa(lp1295
F0.982299268245697
aF-0.0
aa(lp1296
F0.982299268245697
aF-0.0
aa(lp1297
F0.982299268245697
aF-0.0
aa(lp1298
F0.982299268245697
aF-0.0
aa(lp1299
F0.982299268245697
aF-0.0
aa(lp1300
F0.982299268245697
aF-0.0
aa(lp1301
F0.982299268245697
aF-0.0
aa(lp1302
F0.9933876395225525
aF-0.0
aa(lp1303
F0.9933876395225525
aF-0.0
aa(lp1304
F0.9933876395225525
aF-0.0
aa(lp1305
F0.9933876395225525
aF-0.0
aa(lp1306
F0.9933876395225525
aF-0.0
aa(lp1307
F0.9933876395225525
aF-0.0
aa(lp1308
F0.9933876395225525
aF-0.0
aa(lp1309
F0.9933876395225525
aF-0.0
aa(lp1310
F0.9933876395225525
aF-0.0
aa(lp1311
F1.0
aF-0.0
aa(lp1312
F1.0
aF-0.0
aa(lp1313
F1.0
aF-0.0
aa(lp1314
F1.0
aF-0.0
aa(lp1315
F1.0
aF-0.0
aa(lp1316
F1.0
aF-0.0
aa(lp1317
F0.9933876395225525
aF-0.0
aa(lp1318
F0.9933876395225525
aF-0.0
aa(lp1319
F0.9933876395225525
aF-0.0
aa(lp1320
F0.9933876395225525
aF-0.0
aa(lp1321
F0.9933876395225525
aF-0.0
aa(lp1322
F0.9933876395225525
aF0.03281248360872269
aa(lp1323
F0.9933876395225525
aF0.21205785870552063
aa(lp1324
F0.9933876395225525
aF0.2545633614063263
aa(lp1325
F0.9933876395225525
aF0.2711959481239319
aa(lp1326
F0.9933876395225525
aF0.2711959481239319
aa(lp1327
F0.9933876395225525
aF0.2711959481239319
aa(lp1328
F0.9933876395225525
aF0.2711959481239319
aa(lp1329
F0.9933876395225525
aF0.2711959481239319
aa(lp1330
F0.9933876395225525
aF0.2305385172367096
aa(lp1331
F0.9933876395225525
aF0.03281248360872269
aa(lp1332
F0.997049868106842
aF-0.0
aa(lp1333
F0.9933876395225525
aF-0.038339726626873016
aa(lp1334
F0.9933876395225525
aF-0.14737558364868164
aa(lp1335
F0.9933876395225525
aF-0.23606576025485992
aa(lp1336
F0.9933876395225525
aF-0.24160994589328766
aa(lp1337
F0.9933876395225525
aF-0.24160994589328766
aa(lp1338
F0.997049868106842
aF-0.24900221824645996
aa(lp1339
F0.997049868106842
aF-0.2785712480545044
aa(lp1340
F0.9933876395225525
aF-0.3654133677482605
aa(lp1341
F0.9933876395225525
aF-0.3654133677482605
aa(lp1342
F0.997049868106842
aF-0.0
aa(lp1343
F0.9933876395225525
aF-0.0
aa(lp1344
F0.997049868106842
aF-0.001395374070852995
aa(lp1345
F0.997049868106842
aF-0.2693309187889099
aa(lp1346
F0.997049868106842
aF-0.32292482256889343
aa(lp1347
F0.997049868106842
aF-0.3728225827217102
aa(lp1348
F0.997049868106842
aF-0.37651872634887695
aa(lp1349
F0.997049868106842
aF-0.37651872634887695
aa(lp1350
F0.997049868106842
aF-0.37651872634887695
aa(lp1351
F0.997049868106842
aF-0.37651872634887695
aa(lp1352
F0.997049868106842
aF-0.37651872634887695
aa(lp1353
F0.997049868106842
aF-0.0
aa(lp1354
F0.997049868106842
aF0.3100053369998932
aa(lp1355
F0.997049868106842
aF0.41717615723609924
aa(lp1356
F0.997049868106842
aF0.4282645583152771
aa(lp1357
F0.997049868106842
aF0.41717615723609924
aa(lp1358
F0.997049868106842
aF-0.040204744786024094
aa(lp1359
F0.9933876395225525
aF-0.16216009855270386
aa(lp1360
F0.9933876395225525
aF-0.0
aa(lp1361
F0.9933876395225525
aF-0.0
aa(lp1362
F0.997049868106842
aF-0.0
aa(lp1363
F0.997049868106842
aF0.10119090229272842
aa(lp1364
F0.997049868106842
aF0.043900877237319946
aa(lp1365
F0.997049868106842
aF0.16032898426055908
aa(lp1366
F0.997049868106842
aF0.19172914326190948
aa(lp1367
F0.997049868106842
aF0.034660547971725464
aa(lp1368
F0.9933876395225525
aF0.029133308678865433
aa(lp1369
F0.997049868106842
aF-0.027268288657069206
aa(lp1370
F0.997049868106842
aF-0.0789802074432373
aa(lp1371
F0.9933876395225525
aF-0.0032434393651783466
aa(lp1372
F0.9933876395225525
aF-0.0
aa(lp1373
F0.997049868106842
aF-0.0
aa(lp1374
F0.997049868106842
aF-0.0
aa(lp1375
F0.9859954118728638
aF-0.0
aa(lp1376
F0.9859954118728638
aF-0.0
aa(lp1377
F0.982299268245697
aF-0.0
aa(lp1378
F0.971244752407074
aF-0.0
aa(lp1379
F0.982299268245697
aF-0.0
aa(lp1380
F0.982299268245697
aF-0.0
aa(lp1381
F0.9786370396614075
aF0.10119090229272842
aa(lp1382
F0.9786370396614075
aF0.16770429909229279
aa(lp1383
F0.9786370396614075
aF0.14924059808254242
aa(lp1384
F0.9786370396614075
aF-0.0
aa(lp1385
F0.9786370396614075
aF-0.0
aa(lp1386
F0.9786370396614075
aF-0.0
aa(lp1387
F0.9786370396614075
aF-0.0
aa(lp1388
F0.9786370396614075
aF-0.0
aa(lp1389
F0.9786370396614075
aF-0.0
aa(lp1390
F0.9786370396614075
aF-0.008770680986344814
aa(lp1391
F0.9786370396614075
aF-0.17877572774887085
aa(lp1392
F0.9786370396614075
aF-0.17877572774887085
aa(lp1393
F0.982299268245697
aF-0.0
aa(lp1394
F0.982299268245697
aF-0.0
aa(lp1395
F0.9786370396614075
aF-0.0
aa(lp1396
F0.9786370396614075
aF-0.0
aa(lp1397
F0.9786370396614075
aF0.08084522932767868
aa(lp1398
F0.9786370396614075
aF0.08084522932767868
aa(lp1399
F0.9786370396614075
aF0.03650861606001854
aa(lp1400
F0.9786370396614075
aF0.0789971649646759
aa(lp1401
F0.9786370396614075
aF0.08455831557512283
aa(lp1402
F0.9786370396614075
aF0.08455831557512283
aa(lp1403
F0.9786370396614075
aF0.08455831557512283
aa(lp1404
F0.9786370396614075
aF0.08455831557512283
aa(lp1405
F0.9786370396614075
aF0.0956467017531395
aa(lp1406
F0.9786370396614075
aF0.0956467017531395
aa(lp1407
F0.9786370396614075
aF0.0956467017531395
aa(lp1408
F0.9786370396614075
aF0.12521575391292572
aa(lp1409
F0.9786370396614075
aF0.13074299693107605
aa(lp1410
F0.9786370396614075
aF0.14739252626895905
aa(lp1411
F0.9786370396614075
aF0.14739252626895905
aa(lp1412
F0.9786370396614075
aF0.14739252626895905
aa(lp1413
F0.9786370396614075
aF0.14739252626895905
aa(lp1414
F0.9786370396614075
aF0.15293672680854797
aa(lp1415
F0.9786370396614075
aF0.15293672680854797
aa(lp1416
F0.9786370396614075
aF0.09934283792972565
aa(lp1417
F0.982299268245697
aF-0.0
aa(lp1418
F0.9786370396614075
aF-0.0716049000620842
aa(lp1419
F0.9786370396614075
aF-0.09932588040828705
aa(lp1420
F0.982299268245697
aF-0.14552751183509827
aa(lp1421
F0.982299268245697
aF-0.14552751183509827
aa(lp1422
F0.982299268245697
aF-0.14552751183509827
aa(lp1423
F0.982299268245697
aF-0.14552751183509827
aa(lp1424
F0.982299268245697
aF-0.14552751183509827
aa(lp1425
F0.982299268245697
aF-0.14552751183509827
aa(lp1426
F0.982299268245697
aF-0.0032434393651783466
aa(lp1427
F0.982299268245697
aF-0.062364574521780014
aa(lp1428
F0.9786370396614075
aF-0.11041427403688431
aa(lp1429
F0.9786370396614075
aF-0.11041427403688431
aa(lp1430
F0.9786370396614075
aF-0.11041427403688431
aa(lp1431
F0.9786370396614075
aF-0.0
aa(lp1432
F0.9786370396614075
aF0.08271024376153946
aa(lp1433
F0.9786370396614075
aF0.09378168731927872
aa(lp1434
F0.9786370396614075
aF0.09378168731927872
aa(lp1435
F0.9786370396614075
aF0.09378168731927872
aa(lp1436
F0.9786370396614075
aF0.08084522932767868
aa(lp1437
F0.982299268245697
aF0.05314120277762413
aa(lp1438
F0.9786370396614075
aF0.0032603940926492214
aa(lp1439
F0.9786370396614075
aF0.0032603940926492214
aa(lp1440
F0.9786370396614075
aF-0.0
aa(lp1441
F0.9786370396614075
aF-0.0
aa(lp1442
F0.9786370396614075
aF-0.0
aa(lp1443
F0.9786370396614075
aF-0.0
aa(lp1444
F0.9786370396614075
aF-0.0
aa(lp1445
F0.9786370396614075
aF-0.0
aa(lp1446
F0.982299268245697
aF-0.0
aa(lp1447
F0.982299268245697
aF-0.008770680986344814
aa(lp1448
F0.982299268245697
aF-0.06975683569908142
aa(lp1449
F0.982299268245697
aF-0.016179896891117096
aa(lp1450
F0.9786370396614075
aF0.05129313841462135
aa(lp1451
F0.982299268245697
aF0.06790877133607864
aa(lp1452
F0.982299268245697
aF0.0475970059633255
aa(lp1453
F0.9786370396614075
aF-0.0
aa(lp1454
F0.9786370396614075
aF-0.018011007457971573
aa(lp1455
F0.982299268245697
aF-0.0
aa(lp1456
F0.982299268245697
aF-0.0
aa(lp1457
F0.982299268245697
aF-0.0
aa(lp1458
F0.982299268245697
aF-0.0
aa(lp1459
F0.982299268245697
aF-0.0
aa(lp1460
F0.982299268245697
aF-0.0
aa(lp1461
F0.982299268245697
aF-0.0032434393651783466
aa(lp1462
F0.9786370396614075
aF-0.008770680986344814
aa(lp1463
F0.9786370396614075
aF-0.01985907182097435
aa(lp1464
F0.9786370396614075
aF-0.062364574521780014
aa(lp1465
F0.982299268245697
aF-0.09008555114269257
aa(lp1466
F0.9786370396614075
aF-0.10117394477128983
aa(lp1467
F0.9786370396614075
aF-0.10117394477128983
aa(lp1468
F0.9786370396614075
aF-0.10117394477128983
aa(lp1469
F0.9786370396614075
aF-0.10117394477128983
aa(lp1470
F0.9786370396614075
aF-0.10117394477128983
aa(lp1471
F0.9786370396614075
aF-0.10117394477128983
aa(lp1472
F0.9786370396614075
aF-0.10117394477128983
aa(lp1473
F0.9786370396614075
aF-0.10117394477128983
aa(lp1474
F0.9786370396614075
aF-0.10117394477128983
aa(lp1475
F0.9786370396614075
aF-0.10117394477128983
aa(lp1476
F0.9786370396614075
aF-0.10117394477128983
aa(lp1477
F0.9786370396614075
aF-0.10671813786029816
aa(lp1478
F0.9786370396614075
aF-0.15659895539283752
aa(lp1479
F0.982299268245697
aF-0.16216009855270386
aa(lp1480
F0.982299268245697
aF-0.17877572774887085
aa(lp1481
F0.982299268245697
aF-0.17877572774887085
aa(lp1482
F0.982299268245697
aF-0.17877572774887085
aa(lp1483
F0.982299268245697
aF-0.0
aa(lp1484
F0.982299268245697
aF-0.0
aa(lp1485
F0.9786370396614075
aF-0.0
aa(lp1486
F0.9786370396614075
aF-0.0
aa(lp1487
F0.982299268245697
aF0.12889492511749268
aa(lp1488
F0.9786370396614075
aF0.2065136730670929
aa(lp1489
F0.9786370396614075
aF-0.0
aa(lp1490
F0.982299268245697
aF0.08455831557512283
aa(lp1491
F0.9786370396614075
aF0.20466560125350952
aa(lp1492
F0.9786370396614075
aF0.21577094495296478
aa(lp1493
F0.9786370396614075
aF0.278588205575943
aa(lp1494
F0.9786370396614075
aF0.3247898519039154
aa(lp1495
F0.9786370396614075
aF0.5
aa(lp1496
F0.9786370396614075
aF0.5
aa(lp1497
F0.9786370396614075
aF0.5
aa(lp1498
F0.9786370396614075
aF0.5
aa(lp1499
F0.9786370396614075
aF0.5
aa(lp1500
F0.982299268245697
aF0.10487007349729538
aa(lp1501
F0.9786370396614075
aF-0.08638942241668701
aa(lp1502
F0.9786370396614075
aF-0.230521559715271
aa(lp1503
F0.982299268245697
aF-0.28226739168167114
aa(lp1504
F0.982299268245697
aF-0.28226739168167114
aa(lp1505
F0.982299268245697
aF-0.28226739168167114
aa(lp1506
F0.982299268245697
aF-0.30444416403770447
aa(lp1507
F0.9786370396614075
aF-0.3173806369304657
aa(lp1508
F0.9786370396614075
aF-0.3173806369304657
aa(lp1509
F0.9786370396614075
aF-0.3173806369304657
aa(lp1510
F0.9786370396614075
aF-0.3173806369304657
aa(lp1511
F0.9786370396614075
aF-0.3173806369304657
aa(lp1512
F0.9786370396614075
aF-0.3173806369304657
aa(lp1513
F0.9786370396614075
aF-0.2600906193256378
aa(lp1514
F0.9786370396614075
aF-0.2600906193256378
aa(lp1515
F0.9786370396614075
aF-0.0
aa(lp1516
F0.9786370396614075
aF0.05129313841462135
aa(lp1517
F0.9786370396614075
aF0.07716605067253113
aa(lp1518
F0.9786370396614075
aF0.08455831557512283
aa(lp1519
F0.982299268245697
aF0.040204744786024094
aa(lp1520
F0.982299268245697
aF0.040204744786024094
aa(lp1521
F0.982299268245697
aF0.040204744786024094
aa(lp1522
F0.982299268245697
aF0.040204744786024094
aa(lp1523
F0.9786370396614075
aF0.0789971649646759
aa(lp1524
F0.9786370396614075
aF0.09010250866413116
aa(lp1525
F0.9786370396614075
aF0.10119090229272842
aa(lp1526
F0.982299268245697
aF0.11227928847074509
aa(lp1527
F0.982299268245697
aF0.1991214007139206
aa(lp1528
F0.9786370396614075
aF0.20466560125350952
aa(lp1529
F0.9786370396614075
aF0.25641143321990967
aa(lp1530
F0.982299268245697
aF0.2674998342990875
aa(lp1531
F0.9786370396614075
aF0.34696662425994873
aa(lp1532
F0.982299268245697
aF0.35251083970069885
aa(lp1533
F0.982299268245697
aF0.35251083970069885
aa(lp1534
F0.9786370396614075
aF0.07716605067253113
aa(lp1535
F0.9786370396614075
aF0.2711959481239319
aa(lp1536
F0.982299268245697
aF0.06422959268093109
aa(lp1537
F0.982299268245697
aF0.038356680423021317
aa(lp1538
F0.9786370396614075
aF-0.0
aa(lp1539
F0.9786370396614075
aF-0.0
aa(lp1540
F0.982299268245697
aF-0.06790877133607864
aa(lp1541
F0.9786370396614075
aF-0.17877572774887085
aa(lp1542
F0.9786370396614075
aF-0.17877572774887085
aa(lp1543
F0.9786370396614075
aF-0.17877572774887085
aa(lp1544
F0.9933876395225525
aF-0.0032434393651783466
aa(lp1545
F0.9933876395225525
aF-0.0032434393651783466
aa(lp1546
F0.9933876395225525
aF-0.0032434393651783466
aa(lp1547
F-0.0
aF-0.008770680986344814
aa(lp1548
F0.982299268245697
aF-0.008770680986344814
aa(lp1549
F0.982299268245697
aF-0.008770680986344814
aa(lp1550
F0.9933876395225525
aF-0.17877572774887085
aa(lp1551
F1.0
aF-0.32292482256889343
aa(lp1552
F0.9933876395225525
aF-0.2600906193256378
aa(lp1553
F1.0
aF-0.0
aa(lp1554
F1.0
aF-0.0
aa(lp1555
F0.9933876395225525
aF-0.0
aa(lp1556
F0.997049868106842
aF-0.0
aa(lp1557
F0.997049868106842
aF0.21577094495296478
aa(lp1558
F0.997049868106842
aF0.32109370827674866
aa(lp1559
F0.997049868106842
aF0.32109370827674866
aa(lp1560
F0.997049868106842
aF0.3987124562263489
aa(lp1561
F0.997049868106842
aF0.42458537220954895
aa(lp1562
F0.997049868106842
aF0.040204744786024094
aa(lp1563
F0.997049868106842
aF0.038356680423021317
aa(lp1564
F0.997049868106842
aF0.038356680423021317
aa(lp1565
F0.9859954118728638
aF0.038356680423021317
aa(lp1566
F0.9749408960342407
aF0.03650861606001854
aa(lp1567
F0.9749408960342407
aF0.03650861606001854
aa(lp1568
F0.9786370396614075
aF-0.0
aa(lp1569
F0.9786370396614075
aF-0.0
aa(lp1570
F0.982299268245697
aF-0.021707138046622276
aa(lp1571
F0.9786370396614075
aF-0.04388391971588135
aa(lp1572
F0.982299268245697
aF-0.08823748677968979
aa(lp1573
F0.982299268245697
aF-0.15291976928710938
aa(lp1574
F0.982299268245697
aF-0.15291976928710938
aa(lp1575
F0.982299268245697
aF-0.19356025755405426
aa(lp1576
F0.982299268245697
aF-0.19356025755405426
aa(lp1577
F0.982299268245697
aF-0.19356025755405426
aa(lp1578
F0.982299268245697
aF-0.25824254751205444
aa(lp1579
F0.9786370396614075
aF-0.09747781604528427
aa(lp1580
F0.9786370396614075
aF-0.2619386613368988
aa(lp1581
F0.9786370396614075
aF-0.25086724758148193
aa(lp1582
F0.982299268245697
aF-0.0
aa(lp1583
F0.9786370396614075
aF0.00693956995382905
aa(lp1584
F0.982299268245697
aF0.13815221190452576
aa(lp1585
F0.9786370396614075
aF0.04205280914902687
aa(lp1586
F0.9786370396614075
aF0.029133308678865433
aa(lp1587
F0.9786370396614075
aF0.029133308678865433
aa(lp1588
F0.9786370396614075
aF0.029133308678865433
aa(lp1589
F0.9786370396614075
aF0.029133308678865433
aa(lp1590
F0.9749408960342407
aF0.027268288657069206
aa(lp1591
F0.982299268245697
aF-0.0
aa(lp1592
F1.0
aF-0.0
aa(lp1593
F1.0
aF-0.5
aa(lp1594
F1.0
aF-0.5
aa(lp1595
F0.9896914958953857
aF-0.5
aa(lp1596
F0.9786370396614075
aF-0.5
aa(lp1597
F0.9786370396614075
aF-0.5
aa(lp1598
F0.9786370396614075
aF-0.5
aa(lp1599
F0.9786370396614075
aF-0.5
aa(lp1600
F0.9786370396614075
aF-0.5
aa(lp1601
F-0.0
aF-0.5
aa(lp1602
F-0.0
aF-0.5
aa(lp1603
F-0.0
aF-0.08084522932767868
aa(lp1604
F-0.0
aF-0.5
aa(lp1605
F-0.0
aF-0.36726143956184387
aa(lp1606
F1.0
aF-0.0
aa(lp1607
F1.0
aF-0.0032434393651783466
aa(lp1608
F1.0
aF-0.0032434393651783466
aa(lp1609
F1.0
aF-0.001395374070852995
aa(lp1610
F1.0
aF0.10487007349729538
aa(lp1611
F1.0
aF0.5
aa(lp1612
F1.0
aF0.5
aa(lp1613
F1.0
aF0.5
aa(lp1614
F1.0
aF0.5
aa(lp1615
F-0.0
aF0.5
aa(lp1616
F-0.0
aF0.5
aa(lp1617
F-0.0
aF0.5
aa(lp1618
F-0.0
aF0.5
aa(lp1619
F-0.0
aF0.5
aa(lp1620
F1.0
aF0.3007650077342987
aa(lp1621
F1.0
aF0.08271024376153946
aa(lp1622
F1.0
aF0.2711959481239319
aa(lp1623
F1.0
aF0.1270638108253479
aa(lp1624
F1.0
aF0.04205280914902687
aa(lp1625
F1.0
aF-0.040204744786024094
aa(lp1626
F1.0
aF-0.5
aa(lp1627
F1.0
aF-0.0
aa(lp1628
F1.0
aF-0.016179896891117096
aa(lp1629
F1.0
aF-0.5
aa(lp1630
F1.0
aF-0.5
aa(lp1631
F1.0
aF-0.0
aa(lp1632
F1.0
aF-0.19356025755405426
aa(lp1633
F1.0
aF-0.5
aa(lp1634
F1.0
aF-0.5
aa(lp1635
F1.0
aF-0.5
aa(lp1636
F1.0
aF-0.0
aa(lp1637
F1.0
aF-0.0
aa(lp1638
F1.0
aF-0.5
aa(lp1639
F1.0
aF-0.0
aa(lp1640
F1.0
aF-0.0
aa(lp1641
F1.0
aF0.387624055147171
aa(lp1642
F1.0
aF0.24162690341472626
aa(lp1643
F1.0
aF0.3321821093559265
aa(lp1644
F1.0
aF0.5
aa(lp1645
F1.0
aF0.5
aa(lp1646
F1.0
aF0.5
aa(lp1647
F1.0
aF0.5
aa(lp1648
F1.0
aF0.04205280914902687
aa(lp1649
F1.0
aF-0.021707138046622276
aa(lp1650
F1.0
aF-0.19540831446647644
aa(lp1651
F1.0
aF-0.20096947252750397
aa(lp1652
F1.0
aF-0.0
aa(lp1653
F1.0
aF-0.14737558364868164
aa(lp1654
F1.0
aF-0.2064967155456543
aa(lp1655
F1.0
aF-0.2767401337623596
aa(lp1656
F1.0
aF-0.32107675075531006
aa(lp1657
F1.0
aF-0.3820629119873047
aa(lp1658
F1.0
aF-0.4042227566242218
aa(lp1659
F1.0
aF-0.40978389978408813
aa(lp1660
F1.0
aF-0.14737558364868164
aa(lp1661
F1.0
aF-0.13259105384349823
aa(lp1662
F1.0
aF-0.0
aa(lp1663
F1.0
aF-0.0
aa(lp1664
F1.0
aF0.16402511298656464
aa(lp1665
F1.0
aF0.16955235600471497
aa(lp1666
F1.0
aF0.04574894160032272
aa(lp1667
F1.0
aF0.0032603940926492214
aa(lp1668
F1.0
aF-0.021707138046622276
aa(lp1669
F1.0
aF-0.11226233839988708
aa(lp1670
F1.0
aF-0.2767401337623596
aa(lp1671
F1.0
aF-0.28226739168167114
aa(lp1672
F1.0
aF-0.06421264261007309
aa(lp1673
F1.0
aF0.20836172997951508
aa(lp1674
F1.0
aF0.25641143321990967
aa(lp1675
F1.0
aF0.040204744786024094
aa(lp1676
F1.0
aF0.2139228880405426
aa(lp1677
F1.0
aF0.2139228880405426
aa(lp1678
F1.0
aF0.2139228880405426
aa(lp1679
F1.0
aF0.2139228880405426
aa(lp1680
F1.0
aF0.038356680423021317
aa(lp1681
F1.0
aF0.165873184800148
aa(lp1682
F1.0
aF0.11043122410774231
aa(lp1683
F1.0
aF0.13259105384349823
aa(lp1684
F1.0
aF0.0475970059633255
aa(lp1685
F1.0
aF0.04205280914902687
aa(lp1686
F1.0
aF0.04205280914902687
aa(lp1687
F0.9786370396614075
aF0.038356680423021317
aa(lp1688
F0.9638525247573853
aF0.038356680423021317
aa(lp1689
F0.9638525247573853
aF0.038356680423021317
aa(lp1690
F0.9638525247573853
aF0.038356680423021317
aa(lp1691
F0.997049868106842
aF0.038356680423021317
aa(lp1692
F0.9933876395225525
aF-0.0
aa(lp1693
F0.997049868106842
aF-0.11595846712589264
aa(lp1694
F0.997049868106842
aF-0.18431992828845978
aa(lp1695
F0.997049868106842
aF-0.18431992828845978
aa(lp1696
F1.0
aF-0.0
aa(lp1697
F1.0
aF-0.0
aa(lp1698
F1.0
aF-0.0
aa(lp1699
F1.0
aF-0.0
aa(lp1700
F1.0
aF-0.0
aa(lp1701
F1.0
aF0.023572158068418503
aa(lp1702
F1.0
aF0.5
aa(lp1703
F1.0
aF0.5
aa(lp1704
F1.0
aF0.5
aa(lp1705
F1.0
aF0.5
aa(lp1706
F1.0
aF0.5
aa(lp1707
F1.0
aF0.03650861606001854
aa(lp1708
F1.0
aF0.03650861606001854
aa(lp1709
F1.0
aF-0.0
aa(lp1710
F1.0
aF-0.0
aa(lp1711
F1.0
aF-0.06606070697307587
aa(lp1712
F1.0
aF-0.17140042781829834
aa(lp1713
F1.0
aF-0.20281752943992615
aa(lp1714
F1.0
aF-0.38575905561447144
aa(lp1715
F1.0
aF-0.402391642332077
aa(lp1716
F1.0
aF-0.402391642332077
aa(lp1717
F1.0
aF-0.402391642332077
aa(lp1718
F1.0
aF-0.46337777376174927
aa(lp1719
F1.0
aF-0.5
aa(lp1720
F1.0
aF-0.5
aa(lp1721
F1.0
aF-0.5
aa(lp1722
F1.0
aF-0.0
aa(lp1723
F1.0
aF0.08455831557512283
aa(lp1724
F1.0
aF0.2841324210166931
aa(lp1725
F1.0
aF0.04944507032632828
aa(lp1726
F1.0
aF0.2915246784687042
aa(lp1727
F1.0
aF0.31370145082473755
aa(lp1728
F1.0
aF0.1898980289697647
aa(lp1729
F1.0
aF0.2139228880405426
aa(lp1730
F1.0
aF0.038356680423021317
aa(lp1731
F1.0
aF-0.0
aa(lp1732
F1.0
aF-0.0
aa(lp1733
F1.0
aF-0.0
aa(lp1734
F1.0
aF-0.0
aa(lp1735
F1.0
aF-0.0
aa(lp1736
F1.0
aF-0.0
aa(lp1737
F1.0
aF0.0789971649646759
aa(lp1738
F1.0
aF0.21020980179309845
aa(lp1739
F1.0
aF0.21020980179309845
aa(lp1740
F1.0
aF0.21020980179309845
aa(lp1741
F1.0
aF0.2212981879711151
aa(lp1742
F1.0
aF0.25641143321990967
aa(lp1743
F1.0
aF0.2619556188583374
aa(lp1744
F1.0
aF0.2619556188583374
aa(lp1745
F1.0
aF0.25641143321990967
aa(lp1746
F1.0
aF0.040204744786024094
aa(lp1747
F1.0
aF-0.014331831596791744
aa(lp1748
F1.0
aF-0.16400817036628723
aa(lp1749
F1.0
aF-0.20834477245807648
aa(lp1750
F1.0
aF-0.2600906193256378
aa(lp1751
F1.0
aF-0.2711789906024933
aa(lp1752
F1.0
aF-0.2767401337623596
aa(lp1753
F1.0
aF-0.2878115773200989
aa(lp1754
F1.0
aF-0.2878115773200989
aa(lp1755
F1.0
aF-0.0
aa(lp1756
F1.0
aF-0.0
aa(lp1757
F1.0
aF-0.0
aa(lp1758
F1.0
aF0.21760205924510956
aa(lp1759
F1.0
aF0.04944507032632828
aa(lp1760
F1.0
aF0.038356680423021317
aa(lp1761
F1.0
aF-0.0
aa(lp1762
F1.0
aF-0.07714909315109253
aa(lp1763
F1.0
aF-0.22867350280284882
aa(lp1764
F1.0
aF-0.2638036906719208
aa(lp1765
F1.0
aF-0.27487513422966003
aa(lp1766
F1.0
aF-0.28041931986808777
aa(lp1767
F1.0
aF-0.2859635055065155
aa(lp1768
F1.0
aF-0.0
aa(lp1769
F1.0
aF-0.0
aa(lp1770
F1.0
aF-0.0
aa(lp1771
F1.0
aF0.05129313841462135
aa(lp1772
F1.0
aF0.2139228880405426
aa(lp1773
F1.0
aF0.2139228880405426
aa(lp1774
F1.0
aF0.2139228880405426
aa(lp1775
F1.0
aF0.2139228880405426
aa(lp1776
F1.0
aF0.2139228880405426
aa(lp1777
F1.0
aF0.2139228880405426
aa(lp1778
F1.0
aF0.2139228880405426
aa(lp1779
F1.0
aF0.2139228880405426
aa(lp1780
F1.0
aF0.2139228880405426
aa(lp1781
F1.0
aF0.2139228880405426
aa(lp1782
F1.0
aF0.04574894160032272
aa(lp1783
F1.0
aF0.04574894160032272
aa(lp1784
F1.0
aF0.040204744786024094
aa(lp1785
F1.0
aF0.034660547971725464
aa(lp1786
F1.0
aF0.034660547971725464
aa(lp1787
F1.0
aF0.029133308678865433
aa(lp1788
F1.0
aF0.029133308678865433
aa(lp1789
F1.0
aF-0.0
aa(lp1790
F0.971244752407074
aF-0.0
aa(lp1791
F0.971244752407074
aF-0.0
aa(lp1792
F0.971244752407074
aF-0.0
aa(lp1793
F0.967548668384552
aF-0.027268288657069206
aa(lp1794
F0.971244752407074
aF-0.09008555114269257
aa(lp1795
F0.971244752407074
aF-0.10671813786029816
aa(lp1796
F0.971244752407074
aF-0.10671813786029816
aa(lp1797
F0.971244752407074
aF-0.10671813786029816
aa(lp1798
F0.971244752407074
aF-0.10671813786029816
aa(lp1799
F0.971244752407074
aF-0.10671813786029816
aa(lp1800
F0.971244752407074
aF-0.02540326863527298
aa(lp1801
F0.971244752407074
aF-0.06975683569908142
aa(lp1802
F0.971244752407074
aF-0.008770680986344814
aa(lp1803
F0.971244752407074
aF-0.0
aa(lp1804
F0.971244752407074
aF-0.0
aa(lp1805
F0.971244752407074
aF-0.0
aa(lp1806
F0.971244752407074
aF-0.062364574521780014
aa(lp1807
F0.971244752407074
aF-0.010618746280670166
aa(lp1808
F0.971244752407074
aF-0.0
aa(lp1809
F0.971244752407074
aF-0.0
aa(lp1810
F0.971244752407074
aF-0.0
aa(lp1811
F0.971244752407074
aF-0.11226233839988708
aa(lp1812
F0.971244752407074
aF-0.12887796759605408
aa(lp1813
F0.971244752407074
aF-0.17694462835788727
aa(lp1814
F0.9749408960342407
aF-0.25086724758148193
aa(lp1815
F0.971244752407074
aF-0.2638036906719208
aa(lp1816
F0.982299268245697
aF-0.26563480496406555
aa(lp1817
F0.982299268245697
aF-0.26563480496406555
aa(lp1818
F0.982299268245697
aF-0.19540831446647644
aa(lp1819
F0.982299268245697
aF-0.0032434393651783466
aa(lp1820
F0.982299268245697
aF-0.0
aa(lp1821
F0.982299268245697
aF-0.0
aa(lp1822
F0.9786370396614075
aF0.20283448696136475
aa(lp1823
F0.982299268245697
aF0.3321821093559265
aa(lp1824
F0.982299268245697
aF0.3321821093559265
aa(lp1825
F0.982299268245697
aF0.3321821093559265
aa(lp1826
F0.982299268245697
aF0.3321821093559265
aa(lp1827
F0.982299268245697
aF0.04205280914902687
aa(lp1828
F0.9859954118728638
aF0.03650861606001854
aa(lp1829
F0.9859954118728638
aF0.04944507032632828
aa(lp1830
F0.9859954118728638
aF0.04205280914902687
aa(lp1831
F0.9859954118728638
aF0.04205280914902687
aa(lp1832
F0.9859954118728638
aF0.04205280914902687
aa(lp1833
F0.9859954118728638
aF0.03650861606001854
aa(lp1834
F0.9859954118728638
aF-0.0
aa(lp1835
F0.9859954118728638
aF-0.0
aa(lp1836
F0.9859954118728638
aF-0.038339726626873016
aa(lp1837
F0.9859954118728638
aF-0.18803301453590393
aa(lp1838
F0.9896914958953857
aF-0.23977884650230408
aa(lp1839
F0.9896914958953857
aF-0.23977884650230408
aa(lp1840
F0.9896914958953857
aF-0.23977884650230408
aa(lp1841
F0.9896914958953857
aF-0.23977884650230408
aa(lp1842
F0.9933876395225525
aF-0.0
aa(lp1843
F0.9896914958953857
aF0.16402511298656464
aa(lp1844
F0.9933876395225525
aF0.1898980289697647
aa(lp1845
F0.9933876395225525
aF0.1898980289697647
aa(lp1846
F0.9933876395225525
aF0.1898980289697647
aa(lp1847
F0.9933876395225525
aF0.040204744786024094
aa(lp1848
F0.9896914958953857
aF0.0475970059633255
aa(lp1849
F0.9933876395225525
aF0.05129313841462135
aa(lp1850
F0.9933876395225525
aF0.04574894160032272
aa(lp1851
F0.9933876395225525
aF0.04574894160032272
aa(lp1852
F0.9933876395225525
aF-0.0
aa(lp1853
F0.971244752407074
aF-0.0
aa(lp1854
F0.971244752407074
aF-0.0
aa(lp1855
F0.971244752407074
aF-0.0
aa(lp1856
F0.9896914958953857
aF-0.0
aa(lp1857
F1.0
aF-0.0
aa(lp1858
F1.0
aF-0.0
aa(lp1859
F1.0
aF0.03281248360872269
aa(lp1860
F1.0
aF0.2065136730670929
aa(lp1861
F1.0
aF0.2065136730670929
aa(lp1862
F1.0
aF0.2065136730670929
aa(lp1863
F1.0
aF0.04205280914902687
aa(lp1864
F1.0
aF0.03650861606001854
aa(lp1865
F1.0
aF0.03650861606001854
aa(lp1866
F1.0
aF0.03650861606001854
aa(lp1867
F-0.0
aF0.03650861606001854
aa(lp1868
F1.0
aF-0.06790877133607864
aa(lp1869
F1.0
aF-0.5
aa(lp1870
F1.0
aF-0.5
aa(lp1871
F1.0
aF-0.5
aa(lp1872
F1.0
aF-0.0
aa(lp1873
F1.0
aF-0.5
aa(lp1874
F1.0
aF-0.01985907182097435
aa(lp1875
F1.0
aF-0.0
aa(lp1876
F1.0
aF-0.0
aa(lp1877
F1.0
aF0.278588205575943
aa(lp1878
F1.0
aF0.32294178009033203
aa(lp1879
F1.0
aF0.3340301811695099
aa(lp1880
F1.0
aF0.134456068277359
aa(lp1881
F1.0
aF0.3192456364631653
aa(lp1882
F1.0
aF0.3358782231807709
aa(lp1883
F1.0
aF0.3358782231807709
aa(lp1884
F1.0
aF0.040204744786024094
aa(lp1885
F1.0
aF0.31370145082473755
aa(lp1886
F1.0
aF0.1030389666557312
aa(lp1887
F1.0
aF0.016196850687265396
aa(lp1888
F1.0
aF0.016196850687265396
aa(lp1889
F1.0
aF0.06422959268093109
aa(lp1890
F1.0
aF0.12336768209934235
aa(lp1891
F1.0
aF0.21020980179309845
aa(lp1892
F1.0
aF0.21577094495296478
aa(lp1893
F1.0
aF0.21577094495296478
aa(lp1894
F1.0
aF0.21577094495296478
aa(lp1895
F1.0
aF0.012483766302466393
aa(lp1896
F1.0
aF-0.0
aa(lp1897
F1.0
aF0.018027961254119873
aa(lp1898
F1.0
aF0.0475970059633255
aa(lp1899
F1.0
aF0.20836172997951508
aa(lp1900
F1.0
aF0.05129313841462135
aa(lp1901
F1.0
aF0.04574894160032272
aa(lp1902
F1.0
aF0.13074299693107605
aa(lp1903
F1.0
aF0.13630414009094238
aa(lp1904
F1.0
aF0.13630414009094238
aa(lp1905
F1.0
aF0.13630414009094238
aa(lp1906
F1.0
aF0.13630414009094238
aa(lp1907
F1.0
aF0.13630414009094238
aa(lp1908
F1.0
aF0.13630414009094238
aa(lp1909
F1.0
aF0.03650861606001854
aa(lp1910
F1.0
aF-0.04573198780417442
aa(lp1911
F1.0
aF-0.1917121857404709
aa(lp1912
F1.0
aF-0.19725638628005981
aa(lp1913
F1.0
aF-0.19725638628005981
aa(lp1914
F1.0
aF-0.19725638628005981
aa(lp1915
F1.0
aF-0.19725638628005981
aa(lp1916
F1.0
aF-0.19725638628005981
aa(lp1917
F1.0
aF-0.19725638628005981
aa(lp1918
F1.0
aF-0.20464864373207092
aa(lp1919
F1.0
aF-0.2711789906024933
aa(lp1920
F1.0
aF-0.2841154634952545
aa(lp1921
F1.0
aF-0.3173806369304657
aa(lp1922
F1.0
aF-0.0
aa(lp1923
F1.0
aF-0.0
aa(lp1924
F1.0
aF-0.0
aa(lp1925
F1.0
aF-0.034643594175577164
aa(lp1926
F1.0
aF-0.08084522932767868
aa(lp1927
F1.0
aF-0.0
aa(lp1928
F1.0
aF-0.0
aa(lp1929
F1.0
aF0.027268288657069206
aa(lp1930
F1.0
aF0.07716605067253113
aa(lp1931
F1.0
aF0.06607765704393387
aa(lp1932
F1.0
aF-0.0
aa(lp1933
F1.0
aF-0.0
aa(lp1934
F1.0
aF-0.0
aa(lp1935
F1.0
aF-0.027268288657069206
aa(lp1936
F1.0
aF-0.03279552981257439
aa(lp1937
F1.0
aF-0.03279552981257439
aa(lp1938
F1.0
aF-0.0032434393651783466
aa(lp1939
F1.0
aF-0.0
aa(lp1940
F1.0
aF-0.0
aa(lp1941
F1.0
aF-0.0
aa(lp1942
F1.0
aF-0.0
aa(lp1943
F1.0
aF-0.0
aa(lp1944
F1.0
aF-0.0
aa(lp1945
F1.0
aF-0.0
aa(lp1946
F1.0
aF0.06977379322052002
aa(lp1947
F1.0
aF0.09749476611614227
aa(lp1948
F1.0
aF-0.0
aa(lp1949
F1.0
aF-0.04203585535287857
aa(lp1950
F1.0
aF-0.07714909315109253
aa(lp1951
F1.0
aF-0.08823748677968979
aa(lp1952
F1.0
aF-0.0
aa(lp1953
F1.0
aF-0.0
aa(lp1954
F1.0
aF-0.010618746280670166
aa(lp1955
F1.0
aF-0.05314120277762413
aa(lp1956
F1.0
aF-0.05314120277762413
aa(lp1957
F1.0
aF-0.0
aa(lp1958
F1.0
aF-0.0
aa(lp1959
F1.0
aF-0.0
aa(lp1960
F1.0
aF-0.0
aa(lp1961
F1.0
aF-0.0
aa(lp1962
F1.0
aF-0.0
aa(lp1963
F1.0
aF-0.0
aa(lp1964
F1.0
aF-0.0
aa(lp1965
F1.0
aF-0.0
aa(lp1966
F1.0
aF-0.0
aa(lp1967
F1.0
aF-0.0
aa(lp1968
F1.0
aF0.0716218575835228
aa(lp1969
F1.0
aF0.07716605067253113
aa(lp1970
F1.0
aF0.07716605067253113
aa(lp1971
F1.0
aF-0.0
aa(lp1972
F1.0
aF-0.029116353020071983
aa(lp1973
F1.0
aF-0.029116353020071983
aa(lp1974
F1.0
aF-0.0789802074432373
aa(lp1975
F1.0
aF-0.023555202409625053
aa(lp1976
F1.0
aF-0.023555202409625053
aa(lp1977
F1.0
aF-0.023555202409625053
aa(lp1978
F1.0
aF-0.023555202409625053
aa(lp1979
F1.0
aF-0.012466811574995518
aa(lp1980
F1.0
aF-0.0
aa(lp1981
F1.0
aF-0.0
aa(lp1982
F1.0
aF0.0198760274797678
aa(lp1983
F1.0
aF0.03096441924571991
aa(lp1984
F1.0
aF0.03096441924571991
aa(lp1985
F1.0
aF0.02542022243142128
aa(lp1986
F1.0
aF0.02542022243142128
aa(lp1987
F1.0
aF0.0198760274797678
aa(lp1988
F1.0
aF-0.0
aa(lp1989
F1.0
aF-0.0
aa(lp1990
F1.0
aF-0.0032434393651783466
aa(lp1991
F1.0
aF-0.0032434393651783466
aa(lp1992
F1.0
aF-0.0032434393651783466
aa(lp1993
F1.0
aF-0.0032434393651783466
aa(lp1994
F1.0
aF-0.0032434393651783466
aa(lp1995
F1.0
aF-0.008770680986344814
aa(lp1996
F1.0
aF-0.056820377707481384
aa(lp1997
F1.0
aF-0.11226233839988708
aa(lp1998
F1.0
aF-0.1676873415708542
aa(lp1999
F1.0
aF-0.37097451090812683
aa(lp2000
F1.0
aF-0.37097451090812683
aa(lp2001
F1.0
aF-0.37097451090812683
aa(lp2002
F1.0
aF-0.37097451090812683
aa(lp2003
F1.0
aF-0.2638036906719208
aa(lp2004
F1.0
aF-0.008770680986344814
aa(lp2005
F1.0
aF-0.0
aa(lp2006
F1.0
aF0.22499431669712067
aa(lp2007
F1.0
aF0.22499431669712067
aa(lp2008
F1.0
aF0.22499431669712067
aa(lp2009
F1.0
aF0.22499431669712067
aa(lp2010
F1.0
aF0.22499431669712067
aa(lp2011
F1.0
aF0.22499431669712067
aa(lp2012
F1.0
aF0.22499431669712067
aa(lp2013
F1.0
aF0.22499431669712067
aa(lp2014
F1.0
aF0.22499431669712067
aa(lp2015
F1.0
aF0.22499431669712067
aa(lp2016
F1.0
aF0.2305385172367096
aa(lp2017
F1.0
aF0.2305385172367096
aa(lp2018
F1.0
aF0.04944507032632828
aa(lp2019
F1.0
aF0.043900877237319946
aa(lp2020
F1.0
aF0.038356680423021317
aa(lp2021
F1.0
aF-0.0
aa(lp2022
F1.0
aF-0.0
aa(lp2023
F1.0
aF-0.0
aa(lp2024
F1.0
aF-0.0
aa(lp2025
F1.0
aF-0.0
aa(lp2026
F1.0
aF-0.0
aa(lp2027
F1.0
aF-0.0
aa(lp2028
F1.0
aF-0.0
aa(lp2029
F1.0
aF-0.0
aa(lp2030
F1.0
aF-0.0
aa(lp2031
F1.0
aF-0.0
aa(lp2032
F1.0
aF-0.04388391971588135
aa(lp2033
F1.0
aF-0.09747781604528427
aa(lp2034
F1.0
aF-0.11411040276288986
aa(lp2035
F1.0
aF-0.16953541338443756
aa(lp2036
F1.0
aF-0.18062379956245422
aa(lp2037
F1.0
aF-0.18618494272232056
aa(lp2038
F1.0
aF-0.0
aa(lp2039
F1.0
aF-0.0
aa(lp2040
F1.0
aF-0.0
aa(lp2041
F1.0
aF-0.0
aa(lp2042
F1.0
aF-0.0
aa(lp2043
F1.0
aF-0.0
aa(lp2044
F1.0
aF-0.0
aa(lp2045
F1.0
aF-0.0
aa(lp2046
F1.0
aF0.021724091842770576
aa(lp2047
F1.0
aF0.09934283792972565
aa(lp2048
F1.0
aF0.10487007349729538
aa(lp2049
F1.0
aF0.06607765704393387
aa(lp2050
F1.0
aF0.04574894160032272
aa(lp2051
F1.0
aF-0.0
aa(lp2052
F1.0
aF-0.0
aa(lp2053
F1.0
aF-0.0
aa(lp2054
F1.0
aF-0.0
aa(lp2055
F1.0
aF-0.038339726626873016
aa(lp2056
F1.0
aF-0.08823748677968979
aa(lp2057
F1.0
aF-0.09378168731927872
aa(lp2058
F1.0
aF-0.09378168731927872
aa(lp2059
F1.0
aF-0.0
aa(lp2060
F1.0
aF-0.0
aa(lp2061
F1.0
aF-0.0
aa(lp2062
F1.0
aF-0.0
aa(lp2063
F1.0
aF-0.0
aa(lp2064
F1.0
aF-0.0
aa(lp2065
F1.0
aF-0.0
aa(lp2066
F1.0
aF-0.0
aa(lp2067
F1.0
aF-0.0
aa(lp2068
F1.0
aF-0.0
aa(lp2069
F1.0
aF0.2139228880405426
aa(lp2070
F1.0
aF0.2139228880405426
aa(lp2071
F1.0
aF0.2139228880405426
aa(lp2072
F1.0
aF0.2139228880405426
aa(lp2073
F1.0
aF0.2139228880405426
aa(lp2074
F1.0
aF0.11043122410774231
aa(lp2075
F1.0
aF0.11043122410774231
aa(lp2076
F1.0
aF-0.0032434393651783466
aa(lp2077
F1.0
aF-0.19725638628005981
aa(lp2078
F1.0
aF-0.20281752943992615
aa(lp2079
F1.0
aF-0.2453060895204544
aa(lp2080
F1.0
aF-0.27302706241607666
aa(lp2081
F1.0
aF-0.3192287087440491
aa(lp2082
F1.0
aF-0.3192287087440491
aa(lp2083
F1.0
aF-0.37651872634887695
aa(lp2084
F1.0
aF-0.37651872634887695
aa(lp2085
F1.0
aF-0.3820629119873047
aa(lp2086
F1.0
aF-0.3820629119873047
aa(lp2087
F1.0
aF-0.3820629119873047
aa(lp2088
F1.0
aF-0.3820629119873047
aa(lp2089
F1.0
aF-0.0
aa(lp2090
F1.0
aF0.07531798630952835
aa(lp2091
F1.0
aF0.15293672680854797
aa(lp2092
F1.0
aF0.15293672680854797
aa(lp2093
F1.0
aF0.15293672680854797
aa(lp2094
F1.0
aF0.15293672680854797
aa(lp2095
F1.0
aF0.15293672680854797
aa(lp2096
F1.0
aF0.15293672680854797
aa(lp2097
F1.0
aF0.15293672680854797
aa(lp2098
F1.0
aF0.15293672680854797
aa(lp2099
F1.0
aF0.19357721507549286
aa(lp2100
F1.0
aF0.21205785870552063
aa(lp2101
F1.0
aF0.2231462597846985
aa(lp2102
F1.0
aF0.26565176248550415
aa(lp2103
F1.0
aF0.31370145082473755
aa(lp2104
F1.0
aF0.31370145082473755
aa(lp2105
F1.0
aF0.31370145082473755
aa(lp2106
F1.0
aF0.31370145082473755
aa(lp2107
F1.0
aF0.040204744786024094
aa(lp2108
F1.0
aF-0.0
aa(lp2109
F1.0
aF-0.027268288657069206
aa(lp2110
F1.0
aF-0.0716049000620842
aa(lp2111
F1.0
aF-0.07714909315109253
aa(lp2112
F1.0
aF-0.07714909315109253
aa(lp2113
F1.0
aF-0.0
aa(lp2114
F1.0
aF-0.0
aa(lp2115
F1.0
aF-0.03279552981257439
aa(lp2116
F1.0
aF-0.13813525438308716
aa(lp2117
F1.0
aF-0.1510717123746872
aa(lp2118
F1.0
aF-0.1750965565443039
aa(lp2119
F1.0
aF-0.21943317353725433
aa(lp2120
F1.0
aF-0.22499431669712067
aa(lp2121
F1.0
aF-0.230521559715271
aa(lp2122
F1.0
aF-0.0
aa(lp2123
F1.0
aF-0.0
aa(lp2124
F1.0
aF-0.06975683569908142
aa(lp2125
F1.0
aF-0.06975683569908142
aa(lp2126
F1.0
aF-0.06975683569908142
aa(lp2127
F1.0
aF-0.11595846712589264
aa(lp2128
F1.0
aF-0.12887796759605408
aa(lp2129
F1.0
aF-0.2619386613368988
aa(lp2130
F1.0
aF-0.29520383477211
aa(lp2131
F1.0
aF-0.3007480502128601
aa(lp2132
F1.0
aF-0.3247728943824768
aa(lp2133
F1.0
aF-0.35432496666908264
aa(lp2134
F1.0
aF-0.35432496666908264
aa(lp2135
F1.0
aF-0.35432496666908264
aa(lp2136
F1.0
aF-0.35432496666908264
aa(lp2137
F1.0
aF-0.35432496666908264
aa(lp2138
F1.0
aF-0.05314120277762413
aa(lp2139
F1.0
aF0.5
aa(lp2140
F1.0
aF0.4910987615585327
aa(lp2141
F1.0
aF0.5
aa(lp2142
F1.0
aF0.5
aa(lp2143
F1.0
aF0.5
aa(lp2144
F1.0
aF0.5
aa(lp2145
F1.0
aF0.5
aa(lp2146
F1.0
aF0.5
aa(lp2147
F1.0
aF0.5
aa(lp2148
F1.0
aF0.5
aa(lp2149
F1.0
aF0.5
aa(lp2150
F1.0
aF0.5
aa(lp2151
F1.0
aF0.43196067214012146
aa(lp2152
F1.0
aF0.3635992109775543
aa(lp2153
F1.0
aF-0.0
aa(lp2154
F1.0
aF-0.5
aa(lp2155
F1.0
aF-0.3173806369304657
aa(lp2156
F1.0
aF-0.29705190658569336
aa(lp2157
F1.0
aF-0.419007271528244
aa(lp2158
F1.0
aF-0.4504413306713104
aa(lp2159
F1.0
aF-0.5
aa(lp2160
F1.0
aF-0.5
aa(lp2161
F1.0
aF-0.5
aa(lp2162
F1.0
aF-0.5
aa(lp2163
F1.0
aF-0.5
aa(lp2164
F1.0
aF-0.5
aa(lp2165
F-0.0
aF-0.5
aa(lp2166
F-0.0
aF-0.5
aa(lp2167
F-0.0
aF-0.5
aa(lp2168
F0.6428316831588745
aF-0.5
aa(lp2169
F1.0
aF-0.5
aa(lp2170
F1.0
aF-0.5
aa(lp2171
F1.0
aF-0.5
aa(lp2172
F1.0
aF-0.0
aa(lp2173
F1.0
aF0.42458537220954895
aa(lp2174
F1.0
aF0.5
aa(lp2175
F1.0
aF0.5
aa(lp2176
F1.0
aF0.5
aa(lp2177
F1.0
aF0.5
aa(lp2178
F1.0
aF0.5
aa(lp2179
F1.0
aF0.5
aa(lp2180
F1.0
aF0.5
aa(lp2181
F1.0
aF-0.0
aa(lp2182
F1.0
aF-0.0
aa(lp2183
F1.0
aF-0.0
aa(lp2184
F1.0
aF-0.0
aa(lp2185
F0.967548668384552
aF-0.0
aa(lp2186
F0.967548668384552
aF-0.0
aa(lp2187
F0.971244752407074
aF0.5
aa(lp2188
F0.971244752407074
aF0.5
aa(lp2189
F0.971244752407074
aF0.5
aa(lp2190
F0.971244752407074
aF0.5
aa(lp2191
F0.971244752407074
aF-0.0
aa(lp2192
F0.971244752407074
aF0.5
aa(lp2193
F0.971244752407074
aF0.0032603940926492214
aa(lp2194
F0.971244752407074
aF-0.0
aa(lp2195
F0.971244752407074
aF-0.5
aa(lp2196
F0.971244752407074
aF-0.5
aa(lp2197
F0.971244752407074
aF-0.5
aa(lp2198
F0.971244752407074
aF-0.5
aa(lp2199
F0.971244752407074
aF-0.5
aa(lp2200
F0.971244752407074
aF-0.5
aa(lp2201
F0.971244752407074
aF-0.5
aa(lp2202
F0.971244752407074
aF-0.5
aa(lp2203
F0.971244752407074
aF-0.5
aa(lp2204
F0.967548668384552
aF-0.012466811574995518
aa(lp2205
F0.971244752407074
aF-0.43935292959213257
aa(lp2206
F0.967548668384552
aF-0.05497231334447861
aa(lp2207
F0.971244752407074
aF-0.0
aa(lp2208
F0.971244752407074
aF0.5
aa(lp2209
F0.971244752407074
aF0.5
aa(lp2210
F0.971244752407074
aF0.5
aa(lp2211
F0.971244752407074
aF0.5
aa(lp2212
F0.971244752407074
aF0.5
aa(lp2213
F0.971244752407074
aF0.5
aa(lp2214
F0.971244752407074
aF0.03650861606001854
aa(lp2215
F0.971244752407074
aF0.03650861606001854
aa(lp2216
F0.967548668384552
aF0.03096441924571991
aa(lp2217
F0.967548668384552
aF0.03096441924571991
aa(lp2218
F0.967548668384552
aF0.03096441924571991
aa(lp2219
F0.967548668384552
aF0.03096441924571991
aa(lp2220
F0.967548668384552
aF0.03096441924571991
aa(lp2221
F0.9564602375030518
aF0.03281248360872269
aa(lp2222
F0.9601563811302185
aF0.03281248360872269
aa(lp2223
F0.967548668384552
aF0.027268288657069206
aa(lp2224
F0.967548668384552
aF0.008787635713815689
aa(lp2225
F0.967548668384552
aF-0.0
aa(lp2226
F0.967548668384552
aF-0.11411040276288986
aa(lp2227
F0.967548668384552
aF-0.1898810863494873
aa(lp2228
F0.967548668384552
aF-0.230521559715271
aa(lp2229
F0.967548668384552
aF-0.24345801770687103
aa(lp2230
F0.967548668384552
aF-0.24345801770687103
aa(lp2231
F0.967548668384552
aF-0.1676873415708542
aa(lp2232
F0.967548668384552
aF-0.19725638628005981
aa(lp2233
F0.971244752407074
aF-0.05497231334447861
aa(lp2234
F0.967548668384552
aF-0.4430321156978607
aa(lp2235
F0.967548668384552
aF-0.5
aa(lp2236
F0.967548668384552
aF-0.5
aa(lp2237
F0.967548668384552
aF-0.5
aa(lp2238
F0.967548668384552
aF-0.0
aa(lp2239
F0.967548668384552
aF-0.0
aa(lp2240
F0.967548668384552
aF0.24347497522830963
aa(lp2241
F0.967548668384552
aF0.24901917576789856
aa(lp2242
F0.967548668384552
aF0.24901917576789856
aa(lp2243
F0.967548668384552
aF0.24901917576789856
aa(lp2244
F0.967548668384552
aF0.24901917576789856
aa(lp2245
F0.967548668384552
aF0.24901917576789856
aa(lp2246
F0.967548668384552
aF0.24901917576789856
aa(lp2247
F0.967548668384552
aF0.24901917576789856
aa(lp2248
F0.967548668384552
aF0.24901917576789856
aa(lp2249
F0.967548668384552
aF0.24901917576789856
aa(lp2250
F0.967548668384552
aF0.05129313841462135
aa(lp2251
F0.967548668384552
aF0.029133308678865433
aa(lp2252
F0.967548668384552
aF0.029133308678865433
aa(lp2253
F0.967548668384552
aF0.029133308678865433
aa(lp2254
F0.967548668384552
aF-0.0
aa(lp2255
F0.971244752407074
aF-0.0
aa(lp2256
F0.967548668384552
aF0.00693956995382905
aa(lp2257
F0.967548668384552
aF0.012483766302466393
aa(lp2258
F0.967548668384552
aF0.12889492511749268
aa(lp2259
F0.971244752407074
aF0.2859804630279541
aa(lp2260
F0.971244752407074
aF0.2859804630279541
aa(lp2261
F0.971244752407074
aF0.040204744786024094
aa(lp2262
F0.967548668384552
aF0.034660547971725464
aa(lp2263
F0.967548668384552
aF0.034660547971725464
aa(lp2264
F0.967548668384552
aF0.03650861606001854
aa(lp2265
F0.967548668384552
aF0.03650861606001854
aa(lp2266
F0.967548668384552
aF0.034660547971725464
aa(lp2267
F1.0
aF0.03650861606001854
aa(lp2268
F1.0
aF0.034660547971725464
aa(lp2269
F1.0
aF0.012483766302466393
aa(lp2270
F1.0
aF-0.0
aa(lp2271
F1.0
aF-0.08454135805368423
aa(lp2272
F1.0
aF-0.20464864373207092
aa(lp2273
F1.0
aF-0.20464864373207092
aa(lp2274
F1.0
aF-0.1991214007139206
aa(lp2275
F1.0
aF-0.0
aa(lp2276
F1.0
aF-0.0
aa(lp2277
F1.0
aF-0.0
aa(lp2278
F1.0
aF-0.04388391971588135
aa(lp2279
F1.0
aF-0.1510717123746872
aa(lp2280
F1.0
aF-0.22867350280284882
aa(lp2281
F1.0
aF-0.22867350280284882
aa(lp2282
F1.0
aF-0.2527152895927429
aa(lp2283
F1.0
aF-0.28041931986808777
aa(lp2284
F1.0
aF-0.2915077209472656
aa(lp2285
F1.0
aF-0.2915077209472656
aa(lp2286
F1.0
aF-0.2915077209472656
aa(lp2287
F1.0
aF-0.023555202409625053
aa(lp2288
F1.0
aF-0.008770680986344814
aa(lp2289
F1.0
aF-0.0
aa(lp2290
F1.0
aF0.04574894160032272
aa(lp2291
F1.0
aF0.37653568387031555
aa(lp2292
F1.0
aF0.3820629119873047
aa(lp2293
F1.0
aF0.40980085730552673
aa(lp2294
F1.0
aF0.41532808542251587
aa(lp2295
F1.0
aF0.5
aa(lp2296
F1.0
aF0.5
aa(lp2297
F1.0
aF0.5
aa(lp2298
F1.0
aF0.21945013105869293
aa(lp2299
F1.0
aF0.40056052803993225
aa(lp2300
F1.0
aF0.10671813786029816
aa(lp2301
F1.0
aF0.03650861606001854
aa(lp2302
F1.0
aF-0.040204744786024094
aa(lp2303
F1.0
aF-0.19725638628005981
aa(lp2304
F1.0
aF-0.2638036906719208
aa(lp2305
F1.0
aF-0.2638036906719208
aa(lp2306
F1.0
aF-0.2638036906719208
aa(lp2307
F1.0
aF-0.0
aa(lp2308
F1.0
aF-0.014331831596791744
aa(lp2309
F1.0
aF-0.02540326863527298
aa(lp2310
F1.0
aF-0.06606070697307587
aa(lp2311
F1.0
aF-0.0716049000620842
aa(lp2312
F1.0
aF-0.0716049000620842
aa(lp2313
F1.0
aF-0.0032434393651783466
aa(lp2314
F1.0
aF-0.0
aa(lp2315
F1.0
aF-0.11595846712589264
aa(lp2316
F1.0
aF-0.18062379956245422
aa(lp2317
F1.0
aF-0.19356025755405426
aa(lp2318
F1.0
aF-0.19356025755405426
aa(lp2319
F1.0
aF-0.19356025755405426
aa(lp2320
F1.0
aF-0.1991214007139206
aa(lp2321
F1.0
aF-0.20464864373207092
aa(lp2322
F1.0
aF-0.1270468533039093
aa(lp2323
F1.0
aF-0.0
aa(lp2324
F1.0
aF-0.0
aa(lp2325
F1.0
aF-0.0
aa(lp2326
F1.0
aF-0.0
aa(lp2327
F1.0
aF-0.0
aa(lp2328
F1.0
aF-0.0
aa(lp2329
F1.0
aF-0.0
aa(lp2330
F1.0
aF-0.0
aa(lp2331
F1.0
aF-0.0
aa(lp2332
F1.0
aF0.08084522932767868
aa(lp2333
F1.0
aF0.11597542464733124
aa(lp2334
F1.0
aF0.10487007349729538
aa(lp2335
F1.0
aF0.10487007349729538
aa(lp2336
F1.0
aF0.08455831557512283
aa(lp2337
F1.0
aF0.08455831557512283
aa(lp2338
F1.0
aF0.08455831557512283
aa(lp2339
F1.0
aF0.04574894160032272
aa(lp2340
F1.0
aF0.04574894160032272
aa(lp2341
F1.0
aF0.05129313841462135
aa(lp2342
F1.0
aF0.05129313841462135
aa(lp2343
F1.0
aF0.05129313841462135
aa(lp2344
F1.0
aF0.05129313841462135
aa(lp2345
F1.0
aF0.05129313841462135
aa(lp2346
F1.0
aF0.05129313841462135
aa(lp2347
F1.0
aF-0.0
aa(lp2348
F1.0
aF-0.0
aa(lp2349
F1.0
aF-0.0
aa(lp2350
F1.0
aF-0.0
aa(lp2351
F1.0
aF-0.0
aa(lp2352
F1.0
aF-0.0
aa(lp2353
F1.0
aF0.03096441924571991
aa(lp2354
F1.0
aF0.0475970059633255
aa(lp2355
F1.0
aF0.05314120277762413
aa(lp2356
F1.0
aF0.05314120277762413
aa(lp2357
F1.0
aF0.05314120277762413
aa(lp2358
F1.0
aF0.04205280914902687
aa(lp2359
F1.0
aF-0.0
aa(lp2360
F1.0
aF-0.0
aa(lp2361
F1.0
aF-0.0
aa(lp2362
F1.0
aF-0.0
aa(lp2363
F1.0
aF-0.008770680986344814
aa(lp2364
F1.0
aF-0.06975683569908142
aa(lp2365
F1.0
aF-0.09932588040828705
aa(lp2366
F1.0
aF-0.2619386613368988
aa(lp2367
F1.0
aF-0.2674828767776489
aa(lp2368
F1.0
aF-0.3728225827217102
aa(lp2369
F1.0
aF-0.3728225827217102
aa(lp2370
F1.0
aF-0.3728225827217102
aa(lp2371
F1.0
aF-0.3728225827217102
aa(lp2372
F1.0
aF-0.0
aa(lp2373
F1.0
aF-0.0
aa(lp2374
F1.0
aF0.027268288657069206
aa(lp2375
F1.0
aF0.22499431669712067
aa(lp2376
F1.0
aF0.3100053369998932
aa(lp2377
F1.0
aF0.3100053369998932
aa(lp2378
F1.0
aF0.3100053369998932
aa(lp2379
F1.0
aF0.3100053369998932
aa(lp2380
F1.0
aF0.3100053369998932
aa(lp2381
F1.0
aF0.3266379237174988
aa(lp2382
F1.0
aF0.3266379237174988
aa(lp2383
F1.0
aF0.3266379237174988
aa(lp2384
F1.0
aF0.3266379237174988
aa(lp2385
F1.0
aF0.3266379237174988
aa(lp2386
F1.0
aF0.3266379237174988
aa(lp2387
F1.0
aF0.05129313841462135
aa(lp2388
F1.0
aF-0.006922615226358175
aa(lp2389
F1.0
aF-0.4781453609466553
aa(lp2390
F1.0
aF-0.24160994589328766
aa(lp2391
F1.0
aF-0.23606576025485992
aa(lp2392
F1.0
aF-0.25824254751205444
aa(lp2393
F1.0
aF-0.25824254751205444
aa(lp2394
F1.0
aF-0.2638036906719208
aa(lp2395
F1.0
aF-0.3728225827217102
aa(lp2396
F1.0
aF-0.3728225827217102
aa(lp2397
F1.0
aF-0.3728225827217102
aa(lp2398
F1.0
aF-0.3728225827217102
aa(lp2399
F1.0
aF-0.0
aa(lp2400
F1.0
aF0.09193361550569534
aa(lp2401
F1.0
aF0.2065136730670929
aa(lp2402
F1.0
aF0.25641143321990967
aa(lp2403
F1.0
aF0.2619556188583374
aa(lp2404
F1.0
aF0.3118533790111542
aa(lp2405
F1.0
aF0.3247898519039154
aa(lp2406
F1.0
aF0.3247898519039154
aa(lp2407
F1.0
aF0.3247898519039154
aa(lp2408
F1.0
aF0.05129313841462135
aa(lp2409
F1.0
aF0.05129313841462135
aa(lp2410
F1.0
aF0.09193361550569534
aa(lp2411
F1.0
aF0.11597542464733124
aa(lp2412
F1.0
aF0.165873184800148
aa(lp2413
F1.0
aF0.056837331503629684
aa(lp2414
F1.0
aF0.0716218575835228
aa(lp2415
F1.0
aF0.16032898426055908
aa(lp2416
F1.0
aF0.16032898426055908
aa(lp2417
F1.0
aF0.16032898426055908
aa(lp2418
F1.0
aF0.03650861606001854
aa(lp2419
F1.0
aF-0.0
aa(lp2420
F1.0
aF-0.0
aa(lp2421
F1.0
aF-0.0
aa(lp2422
F1.0
aF-0.0
aa(lp2423
F1.0
aF-0.0
aa(lp2424
F1.0
aF-0.001395374070852995
aa(lp2425
F1.0
aF-0.0716049000620842
aa(lp2426
F1.0
aF-0.17877572774887085
aa(lp2427
F1.0
aF-0.18431992828845978
aa(lp2428
F1.0
aF-0.3728225827217102
aa(lp2429
F1.0
aF-0.4615297317504883
aa(lp2430
F1.0
aF-0.5
aa(lp2431
F1.0
aF-0.5
aa(lp2432
F1.0
aF-0.5
aa(lp2433
F1.0
aF-0.5
aa(lp2434
F1.0
aF-0.5
aa(lp2435
F1.0
aF-0.5
aa(lp2436
F1.0
aF-0.0
aa(lp2437
F1.0
aF0.09378168731927872
aa(lp2438
F1.0
aF0.4134969711303711
aa(lp2439
F1.0
aF0.2619556188583374
aa(lp2440
F1.0
aF0.28228434920310974
aa(lp2441
F1.0
aF0.29891693592071533
aa(lp2442
F1.0
aF0.3340301811695099
aa(lp2443
F1.0
aF0.38577601313591003
aa(lp2444
F1.0
aF0.38577601313591003
aa(lp2445
F1.0
aF0.39130324125289917
aa(lp2446
F1.0
aF0.39130324125289917
aa(lp2447
F1.0
aF0.2767401337623596
aa(lp2448
F1.0
aF0.034660547971725464
aa(lp2449
F1.0
aF0.03281248360872269
aa(lp2450
F1.0
aF0.03281248360872269
aa(lp2451
F1.0
aF-0.0
aa(lp2452
F1.0
aF-0.0
aa(lp2453
F1.0
aF0.09378168731927872
aa(lp2454
F1.0
aF0.2139228880405426
aa(lp2455
F1.0
aF0.2139228880405426
aa(lp2456
F1.0
aF-0.0
aa(lp2457
F1.0
aF-0.03094746358692646
aa(lp2458
F1.0
aF-0.04203585535287857
aa(lp2459
F1.0
aF-0.07714909315109253
aa(lp2460
F1.0
aF-0.09008555114269257
aa(lp2461
F1.0
aF-0.15659895539283752
aa(lp2462
F1.0
aF-0.16216009855270386
aa(lp2463
F1.0
aF-0.1676873415708542
aa(lp2464
F1.0
aF-0.008770680986344814
aa(lp2465
F1.0
aF-0.10671813786029816
aa(lp2466
F1.0
aF-0.008770680986344814
aa(lp2467
F1.0
aF-0.0
aa(lp2468
F1.0
aF-0.0
aa(lp2469
F1.0
aF-0.0
aa(lp2470
F1.0
aF-0.0
aa(lp2471
F1.0
aF-0.0
aa(lp2472
F1.0
aF-0.0
aa(lp2473
F1.0
aF-0.0050745499320328236
aa(lp2474
F1.0
aF-0.038339726626873016
aa(lp2475
F1.0
aF-0.08269329369068146
aa(lp2476
F1.0
aF-0.001395374070852995
aa(lp2477
F1.0
aF0.21205785870552063
aa(lp2478
F1.0
aF0.21205785870552063
aa(lp2479
F1.0
aF0.21205785870552063
aa(lp2480
F1.0
aF0.21205785870552063
aa(lp2481
F1.0
aF0.21205785870552063
aa(lp2482
F1.0
aF0.21205785870552063
aa(lp2483
F1.0
aF-0.06606070697307587
aa(lp2484
F1.0
aF-0.09378168731927872
aa(lp2485
F1.0
aF-0.008770680986344814
aa(lp2486
F1.0
aF-0.008770680986344814
aa(lp2487
F1.0
aF-0.01985907182097435
aa(lp2488
F1.0
aF-0.18062379956245422
aa(lp2489
F1.0
aF-0.20834477245807648
aa(lp2490
F1.0
aF-0.213905930519104
aa(lp2491
F1.0
aF-0.230521559715271
aa(lp2492
F1.0
aF-0.0
aa(lp2493
F1.0
aF-0.0
aa(lp2494
F1.0
aF-0.0
aa(lp2495
F0.9933876395225525
aF-0.0
aa(lp2496
F0.9933876395225525
aF-0.0
aa(lp2497
F0.9933876395225525
aF-0.0
aa(lp2498
F0.997049868106842
aF0.13630414009094238
aa(lp2499
F0.997049868106842
aF0.21760205924510956
aa(lp2500
F1.0
aF0.3173806369304657
aa(lp2501
F0.997049868106842
aF0.3155325651168823
aa(lp2502
F0.997049868106842
aF0.3155325651168823
aa(lp2503
F0.997049868106842
aF0.038356680423021317
aa(lp2504
F0.997049868106842
aF0.038356680423021317
aa(lp2505
F0.997049868106842
aF0.038356680423021317
aa(lp2506
F0.997049868106842
aF0.038356680423021317
aa(lp2507
F0.997049868106842
aF0.038356680423021317
aa(lp2508
F0.9749408960342407
aF0.03650861606001854
aa(lp2509
F0.971244752407074
aF-0.0
aa(lp2510
F0.971244752407074
aF-0.06421264261007309
aa(lp2511
F0.971244752407074
aF-0.06975683569908142
aa(lp2512
F0.971244752407074
aF-0.11411040276288986
aa(lp2513
F0.971244752407074
aF-0.2064967155456543
aa(lp2514
F0.971244752407074
aF-0.2064967155456543
aa(lp2515
F0.971244752407074
aF-0.3247728943824768
aa(lp2516
F0.971244752407074
aF-0.3247728943824768
aa(lp2517
F0.971244752407074
aF-0.3413885235786438
aa(lp2518
F0.967548668384552
aF-0.34694966673851013
aa(lp2519
F0.971244752407074
aF-0.2674828767776489
aa(lp2520
F0.971244752407074
aF-0.001395374070852995
aa(lp2521
F0.971244752407074
aF0.21205785870552063
aa(lp2522
F0.971244752407074
aF0.10119090229272842
aa(lp2523
F0.971244752407074
aF0.20836172997951508
aa(lp2524
F0.971244752407074
aF0.39315131306648254
aa(lp2525
F0.971244752407074
aF0.3820629119873047
aa(lp2526
F0.971244752407074
aF0.04574894160032272
aa(lp2527
F0.971244752407074
aF-0.0
aa(lp2528
F0.971244752407074
aF-0.08823748677968979
aa(lp2529
F0.967548668384552
aF-0.008770680986344814
aa(lp2530
F0.9749408960342407
aF-0.0
aa(lp2531
F0.9749408960342407
aF-0.0
aa(lp2532
F0.971244752407074
aF-0.0
aa(lp2533
F0.971244752407074
aF-0.04388391971588135
aa(lp2534
F0.971244752407074
aF-0.21758510172367096
aa(lp2535
F0.971244752407074
aF-0.06975683569908142
aa(lp2536
F0.971244752407074
aF-0.20834477245807648
aa(lp2537
F0.971244752407074
aF-0.0
aa(lp2538
F0.9749408960342407
aF-0.0
aa(lp2539
F0.971244752407074
aF-0.0
aa(lp2540
F0.971244752407074
aF0.06422959268093109
aa(lp2541
F0.971244752407074
aF0.10119090229272842
aa(lp2542
F0.971244752407074
aF0.10671813786029816
aa(lp2543
F0.971244752407074
aF0.03281248360872269
aa(lp2544
F0.971244752407074
aF-0.0
aa(lp2545
F0.971244752407074
aF-0.0
aa(lp2546
F0.967548668384552
aF-0.0
aa(lp2547
F0.967548668384552
aF-0.0
aa(lp2548
F0.971244752407074
aF-0.0
aa(lp2549
F0.967548668384552
aF-0.0
aa(lp2550
F0.971244752407074
aF-0.04203585535287857
aa(lp2551
F0.971244752407074
aF-0.06421264261007309
aa(lp2552
F0.971244752407074
aF-0.1270468533039093
aa(lp2553
F0.971244752407074
aF-0.13259105384349823
aa(lp2554
F0.967548668384552
aF-0.23421768844127655
aa(lp2555
F0.971244752407074
aF-0.2674828767776489
aa(lp2556
F0.971244752407074
aF-0.2674828767776489
aa(lp2557
F0.971244752407074
aF-0.2674828767776489
aa(lp2558
F0.971244752407074
aF-0.2674828767776489
aa(lp2559
F0.971244752407074
aF-0.2674828767776489
aa(lp2560
F0.971244752407074
aF-0.2674828767776489
aa(lp2561
F0.9749408960342407
aF-0.25639447569847107
aa(lp2562
F0.9749408960342407
aF-0.25639447569847107
aa(lp2563
F0.9749408960342407
aF-0.001395374070852995
aa(lp2564
F0.9749408960342407
aF-0.0
aa(lp2565
F0.971244752407074
aF-0.0
aa(lp2566
F0.9749408960342407
aF0.06607765704393387
aa(lp2567
F0.9749408960342407
aF0.21760205924510956
aa(lp2568
F0.9749408960342407
aF0.2231462597846985
aa(lp2569
F0.9749408960342407
aF0.05868539959192276
aa(lp2570
F0.9749408960342407
aF0.001395374070852995
aa(lp2571
F0.9749408960342407
aF0.040204744786024094
aa(lp2572
F0.9749408960342407
aF0.11597542464733124
aa(lp2573
F0.9749408960342407
aF0.12151961773633957
aa(lp2574
F0.9749408960342407
aF0.1270638108253479
aa(lp2575
F0.9749408960342407
aF0.09378168731927872
aa(lp2576
F0.9749408960342407
aF0.1898980289697647
aa(lp2577
F0.9749408960342407
aF0.1898980289697647
aa(lp2578
F0.9749408960342407
aF0.1898980289697647
aa(lp2579
F0.9749408960342407
aF0.21577094495296478
aa(lp2580
F0.9749408960342407
aF0.21577094495296478
aa(lp2581
F0.9749408960342407
aF0.21577094495296478
aa(lp2582
F0.9638525247573853
aF0.21760205924510956
aa(lp2583
F0.9638525247573853
aF0.08271024376153946
aa(lp2584
F0.9638525247573853
aF0.040204744786024094
aa(lp2585
F0.967548668384552
aF-0.08823748677968979
aa(lp2586
F0.9638525247573853
aF-0.1658562272787094
aa(lp2587
F0.967548668384552
aF-0.0
aa(lp2588
F0.967548668384552
aF-0.0
aa(lp2589
F0.971244752407074
aF0.09010250866413116
aa(lp2590
F0.967548668384552
aF0.11227928847074509
aa(lp2591
F0.967548668384552
aF0.23238657414913177
aa(lp2592
F0.967548668384552
aF0.2711959481239319
aa(lp2593
F0.967548668384552
aF0.3820629119873047
aa(lp2594
F0.967548668384552
aF0.39315131306648254
aa(lp2595
F0.967548668384552
aF0.21760205924510956
aa(lp2596
F0.971244752407074
aF-0.0
aa(lp2597
F0.967548668384552
aF-0.03094746358692646
aa(lp2598
F0.967548668384552
aF-0.08084522932767868
aa(lp2599
F0.967548668384552
aF-0.08638942241668701
aa(lp2600
F0.967548668384552
aF-0.13628718256950378
aa(lp2601
F0.967548668384552
aF-0.19356025755405426
aa(lp2602
F0.967548668384552
aF-0.2379307746887207
aa(lp2603
F0.967548668384552
aF-0.29705190658569336
aa(lp2604
F0.971244752407074
aF-0.35249388217926025
aa(lp2605
F0.967548668384552
aF-0.5
aa(lp2606
F0.967548668384552
aF-0.5
aa(lp2607
F0.967548668384552
aF-0.5
aa(lp2608
F0.967548668384552
aF-0.5
aa(lp2609
F0.967548668384552
aF-0.5
aa(lp2610
F0.971244752407074
aF-0.0
aa(lp2611
F0.967548668384552
aF0.10119090229272842
aa(lp2612
F0.967548668384552
aF0.2305385172367096
aa(lp2613
F0.967548668384552
aF0.034660547971725464
aa(lp2614
F0.971244752407074
aF0.029133308678865433
aa(lp2615
F0.967548668384552
aF0.21020980179309845
aa(lp2616
F0.967548668384552
aF0.2379307746887207
aa(lp2617
F0.971244752407074
aF0.24347497522830963
aa(lp2618
F0.967548668384552
aF0.3118533790111542
aa(lp2619
F0.967548668384552
aF0.3118533790111542
aa(lp2620
F0.971244752407074
aF0.32294178009033203
aa(lp2621
F0.967548668384552
aF0.3340301811695099
aa(lp2622
F0.967548668384552
aF0.41717615723609924
aa(lp2623
F0.967548668384552
aF0.41717615723609924
aa(lp2624
F0.971244752407074
aF0.11780653148889542
aa(lp2625
F0.967548668384552
aF0.038356680423021317
aa(lp2626
F0.967548668384552
aF-0.014331831596791744
aa(lp2627
F0.971244752407074
aF-0.1270468533039093
aa(lp2628
F0.971244752407074
aF-0.13259105384349823
aa(lp2629
F0.971244752407074
aF0.02542022243142128
aa(lp2630
F0.967548668384552
aF0.2453230321407318
aa(lp2631
F0.971244752407074
aF0.14739252626895905
aa(lp2632
F0.967548668384552
aF-0.0
aa(lp2633
F0.971244752407074
aF-0.0
aa(lp2634
F0.971244752407074
aF-0.0
aa(lp2635
F0.967548668384552
aF-0.12150266021490097
aa(lp2636
F0.971244752407074
aF-0.19356025755405426
aa(lp2637
F0.967548668384552
aF-0.1991214007139206
aa(lp2638
F0.971244752407074
aF-0.2527152895927429
aa(lp2639
F0.971244752407074
aF-0.29520383477211
aa(lp2640
F0.967548668384552
aF-0.3007480502128601
aa(lp2641
F0.967548668384552
aF-0.3007480502128601
aa(lp2642
F0.967548668384552
aF-0.1030220091342926
aa(lp2643
F0.971244752407074
aF-0.0
aa(lp2644
F0.971244752407074
aF-0.0
aa(lp2645
F0.971244752407074
aF-0.0
aa(lp2646
F0.971244752407074
aF-0.0
aa(lp2647
F0.971244752407074
aF-0.0
aa(lp2648
F0.967548668384552
aF0.14000026881694794
aa(lp2649
F0.971244752407074
aF-0.03649165853857994
aa(lp2650
F0.971244752407074
aF-0.2212812304496765
aa(lp2651
F0.971244752407074
aF-0.010618746280670166
aa(lp2652
F0.971244752407074
aF-0.010618746280670166
aa(lp2653
F0.971244752407074
aF-0.010618746280670166
aa(lp2654
F0.971244752407074
aF-0.010618746280670166
aa(lp2655
F0.967548668384552
aF-0.0
aa(lp2656
F0.971244752407074
aF-0.0
aa(lp2657
F0.971244752407074
aF-0.0
aa(lp2658
F0.971244752407074
aF-0.0
aa(lp2659
F0.971244752407074
aF-0.0
aa(lp2660
F0.971244752407074
aF-0.0
aa(lp2661
F0.971244752407074
aF-0.0
aa(lp2662
F0.971244752407074
aF-0.0
aa(lp2663
F0.971244752407074
aF-0.0
aa(lp2664
F0.971244752407074
aF-0.0
aa(lp2665
F0.9749408960342407
aF-0.0050745499320328236
aa(lp2666
F0.9749408960342407
aF-0.15291976928710938
aa(lp2667
F0.9749408960342407
aF-0.20096947252750397
aa(lp2668
F0.9749408960342407
aF-0.20096947252750397
aa(lp2669
F0.9749408960342407
aF-0.20096947252750397
aa(lp2670
F0.9749408960342407
aF-0.0
aa(lp2671
F0.9786370396614075
aF-0.0
aa(lp2672
F0.9749408960342407
aF-0.09008555114269257
aa(lp2673
F0.9749408960342407
aF-0.0956297516822815
aa(lp2674
F0.9749408960342407
aF-0.0956297516822815
aa(lp2675
F0.9749408960342407
aF-0.11226233839988708
aa(lp2676
F0.9749408960342407
aF-0.17877572774887085
aa(lp2677
F0.9749408960342407
aF-0.17877572774887085
aa(lp2678
F0.9749408960342407
aF-0.17877572774887085
aa(lp2679
F0.9749408960342407
aF-0.18062379956245422
aa(lp2680
F0.9749408960342407
aF-0.2064967155456543
aa(lp2681
F0.9749408960342407
aF-0.24345801770687103
aa(lp2682
F0.9749408960342407
aF-0.24345801770687103
aa(lp2683
F0.9786370396614075
aF-0.0
aa(lp2684
F0.9749408960342407
aF0.17326544225215912
aa(lp2685
F0.9749408960342407
aF0.21760205924510956
aa(lp2686
F0.9749408960342407
aF0.27304401993751526
aa(lp2687
F0.9749408960342407
aF0.27304401993751526
aa(lp2688
F0.9749408960342407
aF0.278588205575943
aa(lp2689
F0.9749408960342407
aF0.278588205575943
aa(lp2690
F0.9749408960342407
aF0.278588205575943
aa(lp2691
F0.9749408960342407
aF0.278588205575943
aa(lp2692
F0.9749408960342407
aF0.37653568387031555
aa(lp2693
F0.9749408960342407
aF0.404239684343338
aa(lp2694
F0.9749408960342407
aF0.5
aa(lp2695
F0.9749408960342407
aF0.5
aa(lp2696
F0.9749408960342407
aF0.5
aa(lp2697
F0.9749408960342407
aF0.36912646889686584
aa(lp2698
F0.9749408960342407
aF-0.07345296442508698
aa(lp2699
F0.9786370396614075
aF-0.19540831446647644
aa(lp2700
F0.9786370396614075
aF-0.19540831446647644
aa(lp2701
F0.9749408960342407
aF-0.2064967155456543
aa(lp2702
F0.9749408960342407
aF-0.29889997839927673
aa(lp2703
F0.9749408960342407
aF-0.29889997839927673
aa(lp2704
F0.9749408960342407
aF-0.34325355291366577
aa(lp2705
F0.9749408960342407
aF-0.5
aa(lp2706
F0.9749408960342407
aF-0.5
aa(lp2707
F0.9786370396614075
aF-0.12887796759605408
aa(lp2708
F0.9749408960342407
aF-0.0
aa(lp2709
F0.9786370396614075
aF-0.0
aa(lp2710
F0.9749408960342407
aF0.06790877133607864
aa(lp2711
F0.9749408960342407
aF0.06790877133607864
aa(lp2712
F0.9749408960342407
aF-0.0
aa(lp2713
F0.9786370396614075
aF-0.0
aa(lp2714
F0.9786370396614075
aF-0.0
aa(lp2715
F0.9749408960342407
aF-0.0
aa(lp2716
F0.9749408960342407
aF-0.0
aa(lp2717
F0.9749408960342407
aF-0.0
aa(lp2718
F0.9749408960342407
aF-0.0
aa(lp2719
F0.9749408960342407
aF-0.0
aa(lp2720
F0.9749408960342407
aF-0.04203585535287857
aa(lp2721
F0.9749408960342407
aF-0.04203585535287857
aa(lp2722
F0.9749408960342407
aF-0.010618746280670166
aa(lp2723
F0.9749408960342407
aF-0.0
aa(lp2724
F0.9749408960342407
aF-0.0
aa(lp2725
F0.9749408960342407
aF-0.001395374070852995
aa(lp2726
F0.9749408960342407
aF-0.03094746358692646
aa(lp2727
F0.9749408960342407
aF-0.10117394477128983
aa(lp2728
F0.9749408960342407
aF-0.19540831446647644
aa(lp2729
F0.9749408960342407
aF-0.2064967155456543
aa(lp2730
F0.9749408960342407
aF-0.21205785870552063
aa(lp2731
F0.9749408960342407
aF-0.25086724758148193
aa(lp2732
F0.9749408960342407
aF-0.3173806369304657
aa(lp2733
F0.9749408960342407
aF-0.3173806369304657
aa(lp2734
F0.9749408960342407
aF-0.010618746280670166
aa(lp2735
F0.9749408960342407
aF-0.010618746280670166
aa(lp2736
F0.9749408960342407
aF-0.010618746280670166
aa(lp2737
F0.9786370396614075
aF-0.0
aa(lp2738
F0.9749408960342407
aF0.13259105384349823
aa(lp2739
F0.9749408960342407
aF0.23423464596271515
aa(lp2740
F0.9749408960342407
aF0.2841324210166931
aa(lp2741
F0.9786370396614075
aF0.17140042781829834
aa(lp2742
F0.9749408960342407
aF0.038356680423021317
aa(lp2743
F0.9786370396614075
aF-0.04203585535287857
aa(lp2744
F0.9749408960342407
aF-0.0
aa(lp2745
F0.9786370396614075
aF-0.0
aa(lp2746
F0.9749408960342407
aF-0.0
aa(lp2747
F0.9749408960342407
aF-0.0
aa(lp2748
F0.9749408960342407
aF0.0716218575835228
aa(lp2749
F0.9749408960342407
aF0.0716218575835228
aa(lp2750
F0.9749408960342407
aF0.040204744786024094
aa(lp2751
F0.9749408960342407
aF0.001395374070852995
aa(lp2752
F0.9749408960342407
aF-0.0
aa(lp2753
F0.9749408960342407
aF-0.008770680986344814
aa(lp2754
F0.9749408960342407
aF-0.10117394477128983
aa(lp2755
F0.9749408960342407
aF-0.2379307746887207
aa(lp2756
F0.9749408960342407
aF-0.2379307746887207
aa(lp2757
F0.9749408960342407
aF-0.2379307746887207
aa(lp2758
F0.9749408960342407
aF-0.1991214007139206
aa(lp2759
F0.9749408960342407
aF-0.0
aa(lp2760
F0.9749408960342407
aF-0.0
aa(lp2761
F0.9749408960342407
aF-0.0
aa(lp2762
F0.9749408960342407
aF-0.0
aa(lp2763
F0.9749408960342407
aF-0.0
aa(lp2764
F0.9749408960342407
aF-0.0
aa(lp2765
F0.9749408960342407
aF-0.0
aa(lp2766
F0.9749408960342407
aF0.05129313841462135
aa(lp2767
F0.9749408960342407
aF0.12151961773633957
aa(lp2768
F0.9749408960342407
aF0.16955235600471497
aa(lp2769
F0.9749408960342407
aF0.05314120277762413
aa(lp2770
F0.9749408960342407
aF0.05314120277762413
aa(lp2771
F0.9749408960342407
aF-0.029116353020071983
aa(lp2772
F0.9749408960342407
aF-0.0
aa(lp2773
F0.9749408960342407
aF-0.0
aa(lp2774
F0.9749408960342407
aF-0.0
aa(lp2775
F0.9749408960342407
aF0.05868539959192276
aa(lp2776
F0.9749408960342407
aF0.16770429909229279
aa(lp2777
F0.9749408960342407
aF0.20098643004894257
aa(lp2778
F0.9749408960342407
aF0.2065136730670929
aa(lp2779
F0.9749408960342407
aF0.2065136730670929
aa(lp2780
F0.9749408960342407
aF0.03281248360872269
aa(lp2781
F0.9786370396614075
aF0.027268288657069206
aa(lp2782
F0.9786370396614075
aF0.027268288657069206
aa(lp2783
F0.9749408960342407
aF0.1030389666557312
aa(lp2784
F0.9749408960342407
aF0.1030389666557312
aa(lp2785
F0.9749408960342407
aF0.1030389666557312
aa(lp2786
F0.9749408960342407
aF0.1030389666557312
aa(lp2787
F0.9749408960342407
aF0.1030389666557312
aa(lp2788
F0.9749408960342407
aF0.05129313841462135
aa(lp2789
F0.9749408960342407
aF0.08271024376153946
aa(lp2790
F0.9749408960342407
aF0.12151961773633957
aa(lp2791
F0.9749408960342407
aF0.1270638108253479
aa(lp2792
F0.9749408960342407
aF0.1270638108253479
aa(lp2793
F0.9749408960342407
aF0.1270638108253479
aa(lp2794
F0.9749408960342407
aF0.1270638108253479
aa(lp2795
F0.9749408960342407
aF-0.0
aa(lp2796
F0.9749408960342407
aF-0.06975683569908142
aa(lp2797
F0.9749408960342407
aF-0.17694462835788727
aa(lp2798
F0.9749408960342407
aF-0.20464864373207092
aa(lp2799
F0.9749408960342407
aF-0.20464864373207092
aa(lp2800
F0.9749408960342407
aF-0.0
aa(lp2801
F0.9749408960342407
aF-0.10117394477128983
aa(lp2802
F0.9749408960342407
aF-0.21205785870552063
aa(lp2803
F0.9786370396614075
aF-0.21758510172367096
aa(lp2804
F0.9786370396614075
aF-0.21758510172367096
aa(lp2805
F0.9786370396614075
aF-0.21758510172367096
aa(lp2806
F0.9749408960342407
aF-0.0
aa(lp2807
F0.9749408960342407
aF-0.0
aa(lp2808
F0.9749408960342407
aF-0.0
aa(lp2809
F-0.0
aF-0.0
aa(lp2810
F0.000790090300142765
aF-0.0
aa(lp2811
F0.9933876395225525
aF-0.0
aa(lp2812
F1.0
aF-0.5
aa(lp2813
F1.0
aF-0.5
aa(lp2814
F1.0
aF-0.5
aa(lp2815
F1.0
aF-0.012466811574995518
aa(lp2816
F1.0
aF-0.006922615226358175
aa(lp2817
F1.0
aF-0.3173806369304657
aa(lp2818
F1.0
aF-0.20834477245807648
aa(lp2819
F1.0
aF-0.008770680986344814
aa(lp2820
F1.0
aF0.1196545958518982
aa(lp2821
F1.0
aF0.35990309715270996
aa(lp2822
F1.0
aF0.5
aa(lp2823
F1.0
aF0.5
aa(lp2824
F1.0
aF0.5
aa(lp2825
F1.0
aF0.5
aa(lp2826
F1.0
aF0.5
aa(lp2827
F1.0
aF0.5
aa(lp2828
F1.0
aF0.5
aa(lp2829
F1.0
aF0.5
aa(lp2830
F1.0
aF0.5
aa(lp2831
F1.0
aF0.5
aa(lp2832
F1.0
aF0.021724091842770576
aa(lp2833
F1.0
aF-0.5
aa(lp2834
F1.0
aF-0.5
aa(lp2835
F1.0
aF-0.5
aa(lp2836
F1.0
aF-0.0
aa(lp2837
F1.0
aF-0.0
aa(lp2838
F1.0
aF-0.20281752943992615
aa(lp2839
F1.0
aF-0.06790877133607864
aa(lp2840
F1.0
aF-0.14737558364868164
aa(lp2841
F1.0
aF-0.0
aa(lp2842
F1.0
aF-0.0
aa(lp2843
F1.0
aF-0.0
aa(lp2844
F1.0
aF-0.0
aa(lp2845
F1.0
aF-0.0
aa(lp2846
F1.0
aF-0.0
aa(lp2847
F1.0
aF-0.0
aa(lp2848
F1.0
aF-0.0
aa(lp2849
F1.0
aF-0.0
aa(lp2850
F1.0
aF-0.0
aa(lp2851
F1.0
aF-0.2064967155456543
aa(lp2852
F1.0
aF-0.24900221824645996
aa(lp2853
F1.0
aF-0.24900221824645996
aa(lp2854
F1.0
aF-0.010618746280670166
aa(lp2855
F1.0
aF-0.0
aa(lp2856
F1.0
aF0.23979580402374268
aa(lp2857
F1.0
aF0.3173806369304657
aa(lp2858
F1.0
aF0.3173806369304657
aa(lp2859
F1.0
aF0.3173806369304657
aa(lp2860
F1.0
aF0.3173806369304657
aa(lp2861
F1.0
aF0.3358782231807709
aa(lp2862
F1.0
aF0.3358782231807709
aa(lp2863
F1.0
aF0.3358782231807709
aa(lp2864
F1.0
aF0.3266379237174988
aa(lp2865
F1.0
aF0.040204744786024094
aa(lp2866
F1.0
aF-0.230521559715271
aa(lp2867
F1.0
aF-0.2638036906719208
aa(lp2868
F1.0
aF-0.3949993848800659
aa(lp2869
F1.0
aF-0.40054357051849365
aa(lp2870
F1.0
aF-0.26563480496406555
aa(lp2871
F1.0
aF-0.001395374070852995
aa(lp2872
F1.0
aF-0.4042227566242218
aa(lp2873
F1.0
aF-0.5
aa(lp2874
F1.0
aF-0.5
aa(lp2875
F1.0
aF-0.5
aa(lp2876
F1.0
aF-0.5
aa(lp2877
F1.0
aF-0.0
aa(lp2878
F1.0
aF-0.0
aa(lp2879
F1.0
aF0.2638036906719208
aa(lp2880
F1.0
aF0.3173806369304657
aa(lp2881
F1.0
aF0.32846900820732117
aa(lp2882
F1.0
aF0.3506627678871155
aa(lp2883
F1.0
aF0.36727839708328247
aa(lp2884
F1.0
aF0.36727839708328247
aa(lp2885
F1.0
aF0.36727839708328247
aa(lp2886
F1.0
aF0.36727839708328247
aa(lp2887
F1.0
aF0.36727839708328247
aa(lp2888
F1.0
aF0.36727839708328247
aa(lp2889
F1.0
aF0.36727839708328247
aa(lp2890
F1.0
aF0.1972733438014984
aa(lp2891
F1.0
aF-0.18062379956245422
aa(lp2892
F1.0
aF-0.3801978826522827
aa(lp2893
F1.0
aF-0.5
aa(lp2894
F1.0
aF-0.01985907182097435
aa(lp2895
F1.0
aF-0.37834984064102173
aa(lp2896
F1.0
aF-0.07530102878808975
aa(lp2897
F1.0
aF-0.038339726626873016
aa(lp2898
F1.0
aF-0.0
aa(lp2899
F1.0
aF0.0789971649646759
aa(lp2900
F1.0
aF0.0198760274797678
aa(lp2901
F1.0
aF-0.03649165853857994
aa(lp2902
F1.0
aF-0.012466811574995518
aa(lp2903
F1.0
aF-0.0
aa(lp2904
F1.0
aF-0.0
aa(lp2905
F1.0
aF-0.0
aa(lp2906
F1.0
aF-0.010618746280670166
aa(lp2907
F1.0
aF-0.010618746280670166
aa(lp2908
F1.0
aF-0.010618746280670166
aa(lp2909
F1.0
aF-0.010618746280670166
aa(lp2910
F1.0
aF-0.010618746280670166
aa(lp2911
F1.0
aF-0.010618746280670166
aa(lp2912
F1.0
aF-0.010618746280670166
aa(lp2913
F1.0
aF-0.010618746280670166
aa(lp2914
F1.0
aF-0.010618746280670166
aa(lp2915
F1.0
aF-0.010618746280670166
aa(lp2916
F1.0
aF-0.07345296442508698
aa(lp2917
F1.0
aF-0.0789802074432373
aa(lp2918
F1.0
aF-0.027268288657069206
aa(lp2919
F1.0
aF-0.006922615226358175
aa(lp2920
F1.0
aF0.08825444430112839
aa(lp2921
F1.0
aF0.09378168731927872
aa(lp2922
F1.0
aF0.03650861606001854
aa(lp2923
F1.0
aF0.03096441924571991
aa(lp2924
F1.0
aF0.03096441924571991
aa(lp2925
F1.0
aF-0.0
aa(lp2926
F1.0
aF-0.021707138046622276
aa(lp2927
F1.0
aF-0.10671813786029816
aa(lp2928
F1.0
aF-0.18431992828845978
aa(lp2929
F1.0
aF-0.20096947252750397
aa(lp2930
F1.0
aF-0.20096947252750397
aa(lp2931
F1.0
aF-0.20096947252750397
aa(lp2932
F1.0
aF-0.20096947252750397
aa(lp2933
F1.0
aF-0.12519879639148712
aa(lp2934
F1.0
aF-0.0
aa(lp2935
F1.0
aF-0.0
aa(lp2936
F1.0
aF0.07716605067253113
aa(lp2937
F1.0
aF0.05129313841462135
aa(lp2938
F1.0
aF-0.0
aa(lp2939
F1.0
aF-0.0
aa(lp2940
F1.0
aF0.040204744786024094
aa(lp2941
F1.0
aF0.07716605067253113
aa(lp2942
F1.0
aF0.03096441924571991
aa(lp2943
F1.0
aF-0.0
aa(lp2944
F1.0
aF0.027268288657069206
aa(lp2945
F1.0
aF0.038356680423021317
aa(lp2946
F1.0
aF0.043900877237319946
aa(lp2947
F1.0
aF0.043900877237319946
aa(lp2948
F1.0
aF0.043900877237319946
aa(lp2949
F1.0
aF0.043900877237319946
aa(lp2950
F1.0
aF0.043900877237319946
aa(lp2951
F1.0
aF0.043900877237319946
aa(lp2952
F1.0
aF0.043900877237319946
aa(lp2953
F1.0
aF0.043900877237319946
aa(lp2954
F1.0
aF0.04944507032632828
aa(lp2955
F1.0
aF0.0716218575835228
aa(lp2956
F1.0
aF0.08271024376153946
aa(lp2957
F1.0
aF0.08825444430112839
aa(lp2958
F1.0
aF0.09378168731927872
aa(lp2959
F1.0
aF0.09934283792972565
aa(lp2960
F1.0
aF0.09934283792972565
aa(lp2961
F1.0
aF0.09934283792972565
aa(lp2962
F1.0
aF0.09934283792972565
aa(lp2963
F1.0
aF0.10487007349729538
aa(lp2964
F1.0
aF0.10487007349729538
aa(lp2965
F1.0
aF0.10487007349729538
aa(lp2966
F1.0
aF0.10487007349729538
aa(lp2967
F1.0
aF0.10487007349729538
aa(lp2968
F1.0
aF0.10487007349729538
aa(lp2969
F1.0
aF0.10487007349729538
aa(lp2970
F1.0
aF0.001395374070852995
aa(lp2971
F1.0
aF-0.012466811574995518
aa(lp2972
F1.0
aF-0.0475800521671772
aa(lp2973
F1.0
aF-0.0475800521671772
aa(lp2974
F1.0
aF-0.06421264261007309
aa(lp2975
F1.0
aF-0.11595846712589264
aa(lp2976
F1.0
aF-0.2064967155456543
aa(lp2977
F1.0
aF-0.23606576025485992
aa(lp2978
F1.0
aF-0.2471541464328766
aa(lp2979
F1.0
aF-0.25824254751205444
aa(lp2980
F1.0
aF-0.25824254751205444
aa(lp2981
F1.0
aF-0.25824254751205444
aa(lp2982
F1.0
aF-0.25824254751205444
aa(lp2983
F1.0
aF-0.0
aa(lp2984
F1.0
aF0.005091504659503698
aa(lp2985
F1.0
aF0.06607765704393387
aa(lp2986
F1.0
aF0.06607765704393387
aa(lp2987
F1.0
aF0.06607765704393387
aa(lp2988
F1.0
aF0.10487007349729538
aa(lp2989
F1.0
aF0.15476784110069275
aa(lp2990
F1.0
aF0.16032898426055908
aa(lp2991
F1.0
aF0.17140042781829834
aa(lp2992
F1.0
aF0.18618494272232056
aa(lp2993
F1.0
aF0.18618494272232056
aa(lp2994
F1.0
aF0.04574894160032272
aa(lp2995
F1.0
aF-0.0
aa(lp2996
F1.0
aF-0.0
aa(lp2997
F1.0
aF-0.0
aa(lp2998
F1.0
aF-0.006922615226358175
aa(lp2999
F1.0
aF-0.08084522932767868
aa(lp3000
F1.0
aF-0.1676873415708542
aa(lp3001
F1.0
aF-0.19540831446647644
aa(lp3002
F1.0
aF-0.2064967155456543
aa(lp3003
F1.0
aF-0.24900221824645996
aa(lp3004
F1.0
aF-0.26563480496406555
aa(lp3005
F1.0
aF-0.2711789906024933
aa(lp3006
F1.0
aF-0.2711789906024933
aa(lp3007
F1.0
aF-0.2711789906024933
aa(lp3008
F1.0
aF-0.0
aa(lp3009
F1.0
aF0.21205785870552063
aa(lp3010
F1.0
aF0.2841324210166931
aa(lp3011
F1.0
aF0.3007650077342987
aa(lp3012
F1.0
aF0.3026130497455597
aa(lp3013
F1.0
aF0.05314120277762413
aa(lp3014
F1.0
aF0.1584639698266983
aa(lp3015
F1.0
aF0.14000026881694794
aa(lp3016
F1.0
aF0.03096441924571991
aa(lp3017
F1.0
aF-0.012466811574995518
aa(lp3018
F1.0
aF-0.02540326863527298
aa(lp3019
F1.0
aF-0.0
aa(lp3020
F1.0
aF-0.0
aa(lp3021
F1.0
aF0.08084522932767868
aa(lp3022
F1.0
aF0.08084522932767868
aa(lp3023
F1.0
aF0.03650861606001854
aa(lp3024
F1.0
aF0.05314120277762413
aa(lp3025
F1.0
aF0.14000026881694794
aa(lp3026
F1.0
aF0.20836172997951508
aa(lp3027
F1.0
aF0.23608271777629852
aa(lp3028
F1.0
aF0.2231462597846985
aa(lp3029
F1.0
aF0.21020980179309845
aa(lp3030
F1.0
aF0.04574894160032272
aa(lp3031
F1.0
aF-0.0
aa(lp3032
F1.0
aF-0.0050745499320328236
aa(lp3033
F1.0
aF-0.010618746280670166
aa(lp3034
F1.0
aF-0.027268288657069206
aa(lp3035
F1.0
aF-0.05497231334447861
aa(lp3036
F1.0
aF-0.06606070697307587
aa(lp3037
F1.0
aF-0.06606070697307587
aa(lp3038
F1.0
aF-0.06606070697307587
aa(lp3039
F1.0
aF-0.06606070697307587
aa(lp3040
F1.0
aF-0.0
aa(lp3041
F1.0
aF-0.0
aa(lp3042
F1.0
aF-0.03649165853857994
aa(lp3043
F1.0
aF-0.06421264261007309
aa(lp3044
F1.0
aF-0.06421264261007309
aa(lp3045
F1.0
aF-0.06975683569908142
aa(lp3046
F1.0
aF-0.016179896891117096
aa(lp3047
F1.0
aF-0.062364574521780014
aa(lp3048
F1.0
aF-0.062364574521780014
aa(lp3049
F1.0
aF-0.062364574521780014
aa(lp3050
F1.0
aF-0.012466811574995518
aa(lp3051
F1.0
aF-0.012466811574995518
aa(lp3052
F1.0
aF-0.0
aa(lp3053
F1.0
aF-0.0
aa(lp3054
F1.0
aF-0.0
aa(lp3055
F1.0
aF-0.0
aa(lp3056
F1.0
aF-0.0
aa(lp3057
F1.0
aF-0.0
aa(lp3058
F1.0
aF-0.0
aa(lp3059
F1.0
aF-0.0
aa(lp3060
F1.0
aF-0.0
aa(lp3061
F1.0
aF-0.0
aa(lp3062
F1.0
aF-0.0
aa(lp3063
F1.0
aF-0.0
aa(lp3064
F1.0
aF-0.0
aa(lp3065
F1.0
aF-0.0
aa(lp3066
F1.0
aF-0.016179896891117096
aa(lp3067
F1.0
aF-0.040204744786024094
aa(lp3068
F1.0
aF-0.012466811574995518
aa(lp3069
F1.0
aF-0.0
aa(lp3070
F1.0
aF-0.0
aa(lp3071
F1.0
aF-0.0
aa(lp3072
F1.0
aF-0.0
aa(lp3073
F1.0
aF-0.0
aa(lp3074
F1.0
aF-0.0
aa(lp3075
F1.0
aF-0.0
aa(lp3076
F1.0
aF0.05868539959192276
aa(lp3077
F1.0
aF0.05868539959192276
aa(lp3078
F1.0
aF0.05314120277762413
aa(lp3079
F1.0
aF0.03650861606001854
aa(lp3080
F1.0
aF-0.0
aa(lp3081
F1.0
aF-0.0
aa(lp3082
F1.0
aF-0.0
aa(lp3083
F1.0
aF-0.0
aa(lp3084
F1.0
aF-0.038339726626873016
aa(lp3085
F1.0
aF-0.038339726626873016
aa(lp3086
F1.0
aF-0.038339726626873016
aa(lp3087
F1.0
aF-0.038339726626873016
aa(lp3088
F1.0
aF-0.038339726626873016
aa(lp3089
F1.0
aF-0.0050745499320328236
aa(lp3090
F1.0
aF-0.0
aa(lp3091
F1.0
aF-0.0
aa(lp3092
F1.0
aF-0.0
aa(lp3093
F1.0
aF-0.0
aa(lp3094
F1.0
aF-0.0
aa(lp3095
F1.0
aF0.06790877133607864
aa(lp3096
F1.0
aF0.2231462597846985
aa(lp3097
F1.0
aF0.3173806369304657
aa(lp3098
F1.0
aF0.3173806369304657
aa(lp3099
F1.0
aF0.32294178009033203
aa(lp3100
F1.0
aF0.32294178009033203
aa(lp3101
F1.0
aF0.05129313841462135
aa(lp3102
F1.0
aF-0.0
aa(lp3103
F1.0
aF-0.0
aa(lp3104
F1.0
aF-0.023555202409625053
aa(lp3105
F1.0
aF-0.0956297516822815
aa(lp3106
F1.0
aF-0.2064967155456543
aa(lp3107
F1.0
aF-0.2638036906719208
aa(lp3108
F1.0
aF-0.2693309187889099
aa(lp3109
F1.0
aF-0.27487513422966003
aa(lp3110
F1.0
aF-0.28041931986808777
aa(lp3111
F1.0
aF-0.0
aa(lp3112
F1.0
aF-0.0
aa(lp3113
F1.0
aF-0.0
aa(lp3114
F1.0
aF-0.0
aa.