(lp0
(lp1
F-0.0
aF0.03650861606001854
aa(lp2
F0.7092264294624329
aF0.03650861606001854
aa(lp3
F1.0
aF0.03650861606001854
aa(lp4
F1.0
aF0.03650861606001854
aa(lp5
F1.0
aF0.0475970059633255
aa(lp6
F1.0
aF0.22685934603214264
aa(lp7
F1.0
aF0.2711959481239319
aa(lp8
F1.0
aF0.2638036906719208
aa(lp9
F1.0
aF0.18804997205734253
aa(lp10
F1.0
aF0.040204744786024094
aa(lp11
F1.0
aF-0.0
aa(lp12
F1.0
aF-0.3746706545352936
aa(lp13
F1.0
aF-0.48740264773368835
aa(lp14
F1.0
aF-0.5
aa(lp15
F1.0
aF-0.5
aa(lp16
F1.0
aF-0.5
aa(lp17
F1.0
aF-0.5
aa(lp18
F1.0
aF-0.5
aa(lp19
F-0.0
aF-0.5
aa(lp20
F-0.0
aF-0.5
aa(lp21
F-0.0
aF-0.5
aa(lp22
F-0.0
aF-0.5
aa(lp23
F0.7646005749702454
aF-0.0050745499320328236
aa(lp24
F0.9786370396614075
aF-0.0
aa(lp25
F0.982299268245697
aF-0.0
aa(lp26
F0.9786370396614075
aF0.21205785870552063
aa(lp27
F0.982299268245697
aF0.35990309715270996
aa(lp28
F0.982299268245697
aF0.5
aa(lp29
F0.982299268245697
aF0.5
aa(lp30
F0.982299268245697
aF0.38577601313591003
aa(lp31
F0.982299268245697
aF-0.0
aa(lp32
F0.982299268245697
aF-0.0
aa(lp33
F0.9786370396614075
aF-0.0
aa(lp34
F0.982299268245697
aF0.021724091842770576
aa(lp35
F0.982299268245697
aF0.021724091842770576
aa(lp36
F0.9749408960342407
aF0.03281248360872269
aa(lp37
F0.9749408960342407
aF0.038356680423021317
aa(lp38
F0.9786370396614075
aF0.36912646889686584
aa(lp39
F0.9786370396614075
aF0.00693956995382905
aa(lp40
F0.9749408960342407
aF0.16032898426055908
aa(lp41
F0.9749408960342407
aF0.5
aa(lp42
F0.9786370396614075
aF0.5
aa(lp43
F0.9786370396614075
aF0.5
aa(lp44
F0.9749408960342407
aF0.5
aa(lp45
F0.9749408960342407
aF0.5
aa(lp46
F0.9749408960342407
aF-0.0
aa(lp47
F0.9786370396614075
aF-0.14552751183509827
aa(lp48
F0.9786370396614075
aF-0.19725638628005981
aa(lp49
F0.9786370396614075
aF-0.2711789906024933
aa(lp50
F0.9786370396614075
aF-0.2711789906024933
aa(lp51
F0.9786370396614075
aF-0.2711789906024933
aa(lp52
F0.9786370396614075
aF-0.3561899960041046
aa(lp53
F0.9786370396614075
aF-0.36173421144485474
aa(lp54
F0.9786370396614075
aF-0.3321651518344879
aa(lp55
F0.9786370396614075
aF-0.0
aa(lp56
F0.9786370396614075
aF-0.0
aa(lp57
F0.9786370396614075
aF-0.0
aa(lp58
F0.9786370396614075
aF-0.0
aa(lp59
F0.967548668384552
aF-0.0
aa(lp60
F0.9564602375030518
aF-0.0
aa(lp61
F0.9564602375030518
aF-0.0
aa(lp62
F0.9564602375030518
aF-0.0
aa(lp63
F0.9564602375030518
aF-0.0
aa(lp64
F0.971244752407074
aF-0.0
aa(lp65
F0.971244752407074
aF-0.0
aa(lp66
F0.971244752407074
aF-0.0
aa(lp67
F0.971244752407074
aF-0.0
aa(lp68
F0.9638525247573853
aF-0.0
aa(lp69
F0.9638525247573853
aF-0.19356025755405426
aa(lp70
F0.9638525247573853
aF-0.2064967155456543
aa(lp71
F0.9638525247573853
aF-0.2064967155456543
aa(lp72
F0.9638525247573853
aF-0.22499431669712067
aa(lp73
F0.9638525247573853
aF-0.23606576025485992
aa(lp74
F0.9638525247573853
aF-0.26563480496406555
aa(lp75
F0.9638525247573853
aF-0.2711789906024933
aa(lp76
F0.9638525247573853
aF-0.2878115773200989
aa(lp77
F0.9638525247573853
aF-0.0
aa(lp78
F0.9638525247573853
aF-0.0
aa(lp79
F0.9638525247573853
aF-0.0
aa(lp80
F0.9638525247573853
aF0.05129313841462135
aa(lp81
F0.9638525247573853
aF0.1030389666557312
aa(lp82
F0.9638525247573853
aF0.12151961773633957
aa(lp83
F0.9638525247573853
aF0.12151961773633957
aa(lp84
F0.9638525247573853
aF0.05314120277762413
aa(lp85
F0.9638525247573853
aF0.05314120277762413
aa(lp86
F0.9638525247573853
aF0.08271024376153946
aa(lp87
F0.9638525247573853
aF0.08825444430112839
aa(lp88
F0.9638525247573853
aF0.09934283792972565
aa(lp89
F0.9638525247573853
aF0.11043122410774231
aa(lp90
F0.9638525247573853
aF0.11043122410774231
aa(lp91
F0.9638525247573853
aF0.12151961773633957
aa(lp92
F0.9638525247573853
aF0.21760205924510956
aa(lp93
F0.9638525247573853
aF0.21760205924510956
aa(lp94
F0.9638525247573853
aF0.3192456364631653
aa(lp95
F0.9601563811302185
aF0.4375218152999878
aa(lp96
F0.9638525247573853
aF0.43936988711357117
aa(lp97
F0.9638525247573853
aF0.35434192419052124
aa(lp98
F0.9601563811302185
aF-0.0
aa(lp99
F0.9638525247573853
aF-0.0
aa(lp100
F0.9638525247573853
aF-0.06051651015877724
aa(lp101
F0.9638525247573853
aF-0.1584639698266983
aa(lp102
F0.9638525247573853
aF-0.18618494272232056
aa(lp103
F0.9638525247573853
aF-0.3081403076648712
aa(lp104
F0.9638525247573853
aF-0.3081403076648712
aa(lp105
F0.9638525247573853
aF-0.3081403076648712
aa(lp106
F0.9638525247573853
aF-0.3081403076648712
aa(lp107
F0.9638525247573853
aF-0.3081403076648712
aa(lp108
F0.9638525247573853
aF-0.33031708002090454
aa(lp109
F0.9638525247573853
aF-0.33031708002090454
aa(lp110
F0.9638525247573853
aF-0.3801978826522827
aa(lp111
F0.9638525247573853
aF-0.33031708002090454
aa(lp112
F0.9638525247573853
aF-0.0
aa(lp113
F0.9638525247573853
aF-0.0
aa(lp114
F0.9638525247573853
aF0.278588205575943
aa(lp115
F0.9638525247573853
aF0.3802148401737213
aa(lp116
F0.9638525247573853
aF0.5
aa(lp117
F0.9638525247573853
aF0.5
aa(lp118
F0.9638525247573853
aF0.5
aa(lp119
F0.9638525247573853
aF0.5
aa(lp120
F0.9638525247573853
aF0.5
aa(lp121
F0.9638525247573853
aF0.3506627678871155
aa(lp122
F0.9638525247573853
aF0.3395743668079376
aa(lp123
F0.9638525247573853
aF0.023572158068418503
aa(lp124
F0.9638525247573853
aF-0.034643594175577164
aa(lp125
F0.9638525247573853
aF-0.1510717123746872
aa(lp126
F0.9638525247573853
aF-0.25086724758148193
aa(lp127
F0.9638525247573853
aF-0.4282476007938385
aa(lp128
F0.9638525247573853
aF-0.1196545958518982
aa(lp129
F0.9638525247573853
aF-0.2767401337623596
aa(lp130
F0.9638525247573853
aF-0.339557409286499
aa(lp131
F0.9638525247573853
aF-0.339557409286499
aa(lp132
F0.9638525247573853
aF-0.339557409286499
aa(lp133
F0.9638525247573853
aF-0.339557409286499
aa(lp134
F0.9638525247573853
aF-0.3081403076648712
aa(lp135
F0.9638525247573853
aF-0.3025961220264435
aa(lp136
F0.9638525247573853
aF-0.17877572774887085
aa(lp137
F0.9638525247573853
aF-0.0
aa(lp138
F0.971244752407074
aF0.07716605067253113
aa(lp139
F0.967548668384552
aF0.16770429909229279
aa(lp140
F0.967548668384552
aF0.16770429909229279
aa(lp141
F0.967548668384552
aF0.16770429909229279
aa(lp142
F0.971244752407074
aF0.043900877237319946
aa(lp143
F0.971244752407074
aF0.038356680423021317
aa(lp144
F0.971244752407074
aF0.10119090229272842
aa(lp145
F0.971244752407074
aF0.043900877237319946
aa(lp146
F0.971244752407074
aF0.038356680423021317
aa(lp147
F0.971244752407074
aF0.09934283792972565
aa(lp148
F0.971244752407074
aF0.09934283792972565
aa(lp149
F0.971244752407074
aF-0.0
aa(lp150
F0.971244752407074
aF-0.018011007457971573
aa(lp151
F0.971244752407074
aF-0.0
aa(lp152
F0.971244752407074
aF0.0956467017531395
aa(lp153
F0.971244752407074
aF0.1030389666557312
aa(lp154
F0.971244752407074
aF0.1270638108253479
aa(lp155
F0.971244752407074
aF0.18618494272232056
aa(lp156
F0.971244752407074
aF0.20836172997951508
aa(lp157
F0.971244752407074
aF0.2139228880405426
aa(lp158
F0.971244752407074
aF0.2139228880405426
aa(lp159
F0.971244752407074
aF0.2139228880405426
aa(lp160
F0.971244752407074
aF0.2139228880405426
aa(lp161
F0.971244752407074
aF0.2139228880405426
aa(lp162
F0.971244752407074
aF0.2139228880405426
aa(lp163
F0.971244752407074
aF0.2139228880405426
aa(lp164
F0.967548668384552
aF0.04574894160032272
aa(lp165
F0.967548668384552
aF0.04574894160032272
aa(lp166
F0.9638525247573853
aF0.21945013105869293
aa(lp167
F0.967548668384552
aF0.062381528317928314
aa(lp168
F0.967548668384552
aF0.04205280914902687
aa(lp169
F0.9638525247573853
aF0.03650861606001854
aa(lp170
F0.967548668384552
aF-0.0
aa(lp171
F0.967548668384552
aF-0.0
aa(lp172
F0.967548668384552
aF-0.0
aa(lp173
F0.967548668384552
aF-0.0
aa(lp174
F0.9638525247573853
aF-0.0
aa(lp175
F0.9638525247573853
aF-0.0
aa(lp176
F0.9638525247573853
aF-0.08823748677968979
aa(lp177
F0.967548668384552
aF-0.27302706241607666
aa(lp178
F0.967548668384552
aF-0.29520383477211
aa(lp179
F0.967548668384552
aF-0.30444416403770447
aa(lp180
F0.967548668384552
aF-0.40793582797050476
aa(lp181
F0.967548668384552
aF-0.48740264773368835
aa(lp182
F0.967548668384552
aF-0.5
aa(lp183
F0.967548668384552
aF-0.5
aa(lp184
F0.967548668384552
aF-0.5
aa(lp185
F0.967548668384552
aF-0.5
aa(lp186
F0.967548668384552
aF-0.5
aa(lp187
F0.967548668384552
aF-0.0
aa(lp188
F0.967548668384552
aF0.034660547971725464
aa(lp189
F0.967548668384552
aF0.11227928847074509
aa(lp190
F0.967548668384552
aF0.2139228880405426
aa(lp191
F0.967548668384552
aF0.4837065041065216
aa(lp192
F0.967548668384552
aF0.5
aa(lp193
F0.967548668384552
aF0.5
aa(lp194
F0.967548668384552
aF0.5
aa(lp195
F0.967548668384552
aF0.043900877237319946
aa(lp196
F0.967548668384552
aF0.38577601313591003
aa(lp197
F0.967548668384552
aF0.03096441924571991
aa(lp198
F0.967548668384552
aF0.04205280914902687
aa(lp199
F0.967548668384552
aF0.04205280914902687
aa(lp200
F0.967548668384552
aF0.03650861606001854
aa(lp201
F0.967548668384552
aF-0.0
aa(lp202
F0.9638525247573853
aF-0.0
aa(lp203
F0.9638525247573853
aF-0.0
aa(lp204
F0.9859954118728638
aF-0.0
aa(lp205
F0.9933876395225525
aF-0.0
aa(lp206
F1.0
aF-0.0
aa(lp207
F1.0
aF0.00693956995382905
aa(lp208
F1.0
aF0.11597542464733124
aa(lp209
F1.0
aF-0.0
aa(lp210
F1.0
aF-0.0
aa(lp211
F0.971244752407074
aF-0.0
aa(lp212
F0.971244752407074
aF-0.07345296442508698
aa(lp213
F0.971244752407074
aF-0.0032434393651783466
aa(lp214
F0.971244752407074
aF-0.0
aa(lp215
F0.971244752407074
aF-0.0
aa(lp216
F0.9749408960342407
aF-0.0
aa(lp217
F0.971244752407074
aF0.08084522932767868
aa(lp218
F0.971244752407074
aF0.1030389666557312
aa(lp219
F0.9749408960342407
aF0.23238657414913177
aa(lp220
F0.971244752407074
aF0.29706886410713196
aa(lp221
F0.9749408960342407
aF0.3247898519039154
aa(lp222
F0.9749408960342407
aF0.3247898519039154
aa(lp223
F0.9749408960342407
aF0.3247898519039154
aa(lp224
F0.9749408960342407
aF0.043900877237319946
aa(lp225
F0.9749408960342407
aF-0.0
aa(lp226
F0.9749408960342407
aF-0.07345296442508698
aa(lp227
F0.9749408960342407
aF-0.17877572774887085
aa(lp228
F0.9749408960342407
aF-0.47075310349464417
aa(lp229
F0.9749408960342407
aF-0.03279552981257439
aa(lp230
F0.9749408960342407
aF-0.41531112790107727
aa(lp231
F0.9786370396614075
aF-0.027268288657069206
aa(lp232
F0.9786370396614075
aF-0.038339726626873016
aa(lp233
F0.9786370396614075
aF-0.014331831596791744
aa(lp234
F0.9786370396614075
aF-0.0
aa(lp235
F0.9786370396614075
aF-0.0
aa(lp236
F0.9786370396614075
aF-0.0
aa(lp237
F0.9749408960342407
aF-0.0
aa(lp238
F0.9786370396614075
aF0.10487007349729538
aa(lp239
F0.9749408960342407
aF0.05498926714062691
aa(lp240
F0.9786370396614075
aF0.04944507032632828
aa(lp241
F0.9786370396614075
aF0.04944507032632828
aa(lp242
F0.9786370396614075
aF0.04944507032632828
aa(lp243
F0.9786370396614075
aF0.03281248360872269
aa(lp244
F0.9786370396614075
aF0.03281248360872269
aa(lp245
F0.971244752407074
aF-0.0
aa(lp246
F0.971244752407074
aF-0.0
aa(lp247
F0.967548668384552
aF-0.0
aa(lp248
F0.967548668384552
aF-0.0
aa(lp249
F0.971244752407074
aF0.005091504659503698
aa(lp250
F0.971244752407074
aF0.027268288657069206
aa(lp251
F0.971244752407074
aF0.027268288657069206
aa(lp252
F0.967548668384552
aF0.043900877237319946
aa(lp253
F0.967548668384552
aF0.11043122410774231
aa(lp254
F0.967548668384552
aF0.21945013105869293
aa(lp255
F0.967548668384552
aF0.21945013105869293
aa(lp256
F0.971244752407074
aF0.22499431669712067
aa(lp257
F0.971244752407074
aF0.22499431669712067
aa(lp258
F0.971244752407074
aF0.22499431669712067
aa(lp259
F0.967548668384552
aF0.2139228880405426
aa(lp260
F0.967548668384552
aF0.029133308678865433
aa(lp261
F0.971244752407074
aF-0.0
aa(lp262
F0.971244752407074
aF-0.0
aa(lp263
F0.971244752407074
aF-0.0
aa(lp264
F0.971244752407074
aF-0.0
aa(lp265
F0.967548668384552
aF-0.26563480496406555
aa(lp266
F0.971244752407074
aF-0.3155156075954437
aa(lp267
F0.971244752407074
aF-0.32107675075531006
aa(lp268
F0.971244752407074
aF-0.32107675075531006
aa(lp269
F0.971244752407074
aF-0.32107675075531006
aa(lp270
F0.971244752407074
aF-0.0
aa(lp271
F0.967548668384552
aF-0.0
aa(lp272
F0.971244752407074
aF0.05129313841462135
aa(lp273
F0.967548668384552
aF0.04205280914902687
aa(lp274
F0.971244752407074
aF-0.0
aa(lp275
F0.971244752407074
aF-0.0
aa(lp276
F0.971244752407074
aF-0.0
aa(lp277
F0.971244752407074
aF-0.0
aa(lp278
F0.971244752407074
aF-0.0
aa(lp279
F0.971244752407074
aF-0.0
aa(lp280
F0.971244752407074
aF-0.0
aa(lp281
F0.971244752407074
aF-0.0
aa(lp282
F0.971244752407074
aF-0.0
aa(lp283
F0.971244752407074
aF-0.0
aa(lp284
F0.971244752407074
aF-0.0
aa(lp285
F0.971244752407074
aF-0.0
aa(lp286
F0.971244752407074
aF-0.0
aa(lp287
F0.971244752407074
aF-0.0
aa(lp288
F0.971244752407074
aF-0.0
aa(lp289
F0.971244752407074
aF-0.0
aa(lp290
F0.971244752407074
aF-0.0
aa(lp291
F0.971244752407074
aF-0.0
aa(lp292
F0.971244752407074
aF-0.0
aa(lp293
F0.971244752407074
aF-0.0
aa(lp294
F0.971244752407074
aF-0.0
aa(lp295
F0.971244752407074
aF-0.0
aa(lp296
F0.971244752407074
aF-0.0
aa(lp297
F0.971244752407074
aF-0.0
aa(lp298
F0.971244752407074
aF-0.0
aa(lp299
F0.971244752407074
aF-0.0
aa(lp300
F0.971244752407074
aF-0.0
aa(lp301
F0.971244752407074
aF-0.0
aa(lp302
F0.971244752407074
aF-0.0
aa(lp303
F0.971244752407074
aF-0.0
aa(lp304
F0.971244752407074
aF-0.0
aa(lp305
F0.971244752407074
aF-0.03649165853857994
aa(lp306
F0.971244752407074
aF-0.03649165853857994
aa(lp307
F0.971244752407074
aF-0.012466811574995518
aa(lp308
F0.971244752407074
aF-0.0
aa(lp309
F0.971244752407074
aF-0.0
aa(lp310
F0.971244752407074
aF-0.0
aa(lp311
F0.971244752407074
aF-0.0
aa(lp312
F0.971244752407074
aF-0.0
aa(lp313
F0.971244752407074
aF-0.0
aa(lp314
F0.971244752407074
aF-0.0
aa(lp315
F0.971244752407074
aF-0.0
aa(lp316
F0.971244752407074
aF-0.0
aa(lp317
F0.971244752407074
aF-0.0
aa(lp318
F0.971244752407074
aF-0.0
aa(lp319
F0.971244752407074
aF-0.0
aa(lp320
F0.971244752407074
aF-0.0
aa.