(lp0
(lp1
F1.0
aF0.038356680423021317
aa(lp2
F1.0
aF0.03650861606001854
aa(lp3
F1.0
aF0.038356680423021317
aa(lp4
F1.0
aF0.038356680423021317
aa(lp5
F1.0
aF-0.014331831596791744
aa(lp6
F1.0
aF-0.17877572774887085
aa(lp7
F1.0
aF-0.21575398743152618
aa(lp8
F1.0
aF-0.018011007457971573
aa(lp9
F1.0
aF-0.0
aa(lp10
F1.0
aF-0.0
aa(lp11
F1.0
aF-0.0
aa(lp12
F1.0
aF-0.0
aa(lp13
F1.0
aF-0.0
aa(lp14
F0.9786370396614075
aF-0.0
aa(lp15
F0.9786370396614075
aF-0.0
aa(lp16
F0.9786370396614075
aF-0.0
aa(lp17
F0.982299268245697
aF-0.0
aa(lp18
F0.982299268245697
aF-0.0
aa(lp19
F0.982299268245697
aF-0.0
aa(lp20
F0.982299268245697
aF-0.0
aa(lp21
F0.9786370396614075
aF-0.0
aa(lp22
F0.9786370396614075
aF-0.0
aa(lp23
F0.9786370396614075
aF0.07716605067253113
aa(lp24
F0.9786370396614075
aF0.16402511298656464
aa(lp25
F0.982299268245697
aF0.1898980289697647
aa(lp26
F0.9786370396614075
aF0.1991214007139206
aa(lp27
F0.982299268245697
aF0.04205280914902687
aa(lp28
F0.9786370396614075
aF0.12336768209934235
aa(lp29
F0.9786370396614075
aF0.12336768209934235
aa(lp30
F0.9786370396614075
aF-0.0
aa(lp31
F0.9786370396614075
aF-0.04388391971588135
aa(lp32
F0.982299268245697
aF-0.09747781604528427
aa(lp33
F0.9786370396614075
aF-0.1030220091342926
aa(lp34
F0.9786370396614075
aF-0.15475088357925415
aa(lp35
F0.9786370396614075
aF-0.001395374070852995
aa(lp36
F0.982299268245697
aF-0.14552751183509827
aa(lp37
F0.9786370396614075
aF-0.17140042781829834
aa(lp38
F0.9786370396614075
aF-0.008770680986344814
aa(lp39
F0.9786370396614075
aF-0.0032434393651783466
aa(lp40
F0.9786370396614075
aF-0.0
aa(lp41
F0.9786370396614075
aF-0.0
aa(lp42
F0.9786370396614075
aF-0.0
aa(lp43
F0.9786370396614075
aF-0.0
aa(lp44
F0.9786370396614075
aF-0.0
aa(lp45
F0.9786370396614075
aF-0.0
aa(lp46
F0.9786370396614075
aF-0.0
aa(lp47
F0.9786370396614075
aF-0.0
aa(lp48
F0.9786370396614075
aF-0.0
aa(lp49
F0.9786370396614075
aF-0.0789802074432373
aa(lp50
F0.9786370396614075
aF-0.0789802074432373
aa(lp51
F0.9786370396614075
aF-0.010618746280670166
aa(lp52
F0.982299268245697
aF-0.0
aa(lp53
F0.982299268245697
aF-0.0
aa(lp54
F0.982299268245697
aF-0.0
aa(lp55
F0.982299268245697
aF-0.0
aa(lp56
F0.982299268245697
aF-0.0
aa(lp57
F0.982299268245697
aF-0.0
aa(lp58
F0.982299268245697
aF-0.0
aa(lp59
F0.982299268245697
aF-0.0
aa(lp60
F0.982299268245697
aF-0.0
aa(lp61
F0.982299268245697
aF-0.0
aa(lp62
F0.982299268245697
aF-0.0
aa(lp63
F0.9933876395225525
aF-0.0
aa(lp64
F0.9933876395225525
aF-0.0
aa(lp65
F0.9933876395225525
aF-0.0
aa(lp66
F0.9933876395225525
aF-0.0
aa(lp67
F0.9933876395225525
aF-0.0
aa(lp68
F0.9933876395225525
aF-0.0
aa(lp69
F0.9933876395225525
aF-0.0
aa(lp70
F0.9933876395225525
aF-0.0
aa(lp71
F0.9933876395225525
aF-0.0
aa(lp72
F1.0
aF-0.0
aa(lp73
F1.0
aF-0.0
aa(lp74
F1.0
aF-0.0
aa(lp75
F1.0
aF-0.0
aa(lp76
F1.0
aF-0.0
aa(lp77
F1.0
aF-0.0
aa(lp78
F0.9933876395225525
aF-0.0
aa(lp79
F0.9933876395225525
aF-0.0
aa(lp80
F0.9933876395225525
aF-0.0
aa(lp81
F0.9933876395225525
aF-0.0
aa(lp82
F0.9933876395225525
aF-0.0
aa(lp83
F0.9933876395225525
aF0.03281248360872269
aa(lp84
F0.9933876395225525
aF0.21205785870552063
aa(lp85
F0.9933876395225525
aF0.2545633614063263
aa(lp86
F0.9933876395225525
aF0.2711959481239319
aa(lp87
F0.9933876395225525
aF0.2711959481239319
aa(lp88
F0.9933876395225525
aF0.2711959481239319
aa(lp89
F0.9933876395225525
aF0.2711959481239319
aa(lp90
F0.9933876395225525
aF0.2711959481239319
aa(lp91
F0.9933876395225525
aF0.2305385172367096
aa(lp92
F0.9933876395225525
aF0.03281248360872269
aa(lp93
F0.997049868106842
aF-0.0
aa(lp94
F0.9933876395225525
aF-0.038339726626873016
aa(lp95
F0.9933876395225525
aF-0.14737558364868164
aa(lp96
F0.9933876395225525
aF-0.23606576025485992
aa(lp97
F0.9933876395225525
aF-0.24160994589328766
aa(lp98
F0.9933876395225525
aF-0.24160994589328766
aa(lp99
F0.997049868106842
aF-0.24900221824645996
aa(lp100
F0.997049868106842
aF-0.2785712480545044
aa(lp101
F0.9933876395225525
aF-0.3654133677482605
aa(lp102
F0.9933876395225525
aF-0.3654133677482605
aa(lp103
F0.997049868106842
aF-0.0
aa(lp104
F0.9933876395225525
aF-0.0
aa(lp105
F0.997049868106842
aF-0.001395374070852995
aa(lp106
F0.997049868106842
aF-0.2693309187889099
aa(lp107
F0.997049868106842
aF-0.32292482256889343
aa(lp108
F0.997049868106842
aF-0.3728225827217102
aa(lp109
F0.997049868106842
aF-0.37651872634887695
aa(lp110
F0.997049868106842
aF-0.37651872634887695
aa(lp111
F0.997049868106842
aF-0.37651872634887695
aa(lp112
F0.997049868106842
aF-0.37651872634887695
aa(lp113
F0.997049868106842
aF-0.37651872634887695
aa(lp114
F0.997049868106842
aF-0.0
aa(lp115
F0.997049868106842
aF0.3100053369998932
aa(lp116
F0.997049868106842
aF0.41717615723609924
aa(lp117
F0.997049868106842
aF0.4282645583152771
aa(lp118
F0.997049868106842
aF0.41717615723609924
aa(lp119
F0.997049868106842
aF-0.040204744786024094
aa(lp120
F0.9933876395225525
aF-0.16216009855270386
aa(lp121
F0.9933876395225525
aF-0.0
aa(lp122
F0.9933876395225525
aF-0.0
aa(lp123
F0.997049868106842
aF-0.0
aa(lp124
F0.997049868106842
aF0.10119090229272842
aa(lp125
F0.997049868106842
aF0.043900877237319946
aa(lp126
F0.997049868106842
aF0.16032898426055908
aa(lp127
F0.997049868106842
aF0.19172914326190948
aa(lp128
F0.997049868106842
aF0.034660547971725464
aa(lp129
F0.9933876395225525
aF0.029133308678865433
aa(lp130
F0.997049868106842
aF-0.027268288657069206
aa(lp131
F0.997049868106842
aF-0.0789802074432373
aa(lp132
F0.9933876395225525
aF-0.0032434393651783466
aa(lp133
F0.9933876395225525
aF-0.0
aa(lp134
F0.997049868106842
aF-0.0
aa(lp135
F0.997049868106842
aF-0.0
aa(lp136
F0.9859954118728638
aF-0.0
aa(lp137
F0.9859954118728638
aF-0.0
aa(lp138
F0.982299268245697
aF-0.0
aa(lp139
F0.971244752407074
aF-0.0
aa(lp140
F0.982299268245697
aF-0.0
aa(lp141
F0.982299268245697
aF-0.0
aa(lp142
F0.9786370396614075
aF0.10119090229272842
aa(lp143
F0.9786370396614075
aF0.16770429909229279
aa(lp144
F0.9786370396614075
aF0.14924059808254242
aa(lp145
F0.9786370396614075
aF-0.0
aa(lp146
F0.9786370396614075
aF-0.0
aa(lp147
F0.9786370396614075
aF-0.0
aa(lp148
F0.9786370396614075
aF-0.0
aa(lp149
F0.9786370396614075
aF-0.0
aa(lp150
F0.9786370396614075
aF-0.0
aa(lp151
F0.9786370396614075
aF-0.008770680986344814
aa(lp152
F0.9786370396614075
aF-0.17877572774887085
aa(lp153
F0.9786370396614075
aF-0.17877572774887085
aa(lp154
F0.982299268245697
aF-0.0
aa(lp155
F0.982299268245697
aF-0.0
aa(lp156
F0.9786370396614075
aF-0.0
aa(lp157
F0.9786370396614075
aF-0.0
aa(lp158
F0.9786370396614075
aF0.08084522932767868
aa(lp159
F0.9786370396614075
aF0.08084522932767868
aa(lp160
F0.9786370396614075
aF0.03650861606001854
aa(lp161
F0.9786370396614075
aF0.0789971649646759
aa(lp162
F0.9786370396614075
aF0.08455831557512283
aa(lp163
F0.9786370396614075
aF0.08455831557512283
aa(lp164
F0.9786370396614075
aF0.08455831557512283
aa(lp165
F0.9786370396614075
aF0.08455831557512283
aa(lp166
F0.9786370396614075
aF0.0956467017531395
aa(lp167
F0.9786370396614075
aF0.0956467017531395
aa(lp168
F0.9786370396614075
aF0.0956467017531395
aa(lp169
F0.9786370396614075
aF0.12521575391292572
aa(lp170
F0.9786370396614075
aF0.13074299693107605
aa(lp171
F0.9786370396614075
aF0.14739252626895905
aa(lp172
F0.9786370396614075
aF0.14739252626895905
aa(lp173
F0.9786370396614075
aF0.14739252626895905
aa(lp174
F0.9786370396614075
aF0.14739252626895905
aa(lp175
F0.9786370396614075
aF0.15293672680854797
aa(lp176
F0.9786370396614075
aF0.15293672680854797
aa(lp177
F0.9786370396614075
aF0.09934283792972565
aa(lp178
F0.982299268245697
aF-0.0
aa(lp179
F0.9786370396614075
aF-0.0716049000620842
aa(lp180
F0.9786370396614075
aF-0.09932588040828705
aa(lp181
F0.982299268245697
aF-0.14552751183509827
aa(lp182
F0.982299268245697
aF-0.14552751183509827
aa(lp183
F0.982299268245697
aF-0.14552751183509827
aa(lp184
F0.982299268245697
aF-0.14552751183509827
aa(lp185
F0.982299268245697
aF-0.14552751183509827
aa(lp186
F0.982299268245697
aF-0.14552751183509827
aa(lp187
F0.982299268245697
aF-0.0032434393651783466
aa(lp188
F0.982299268245697
aF-0.062364574521780014
aa(lp189
F0.9786370396614075
aF-0.11041427403688431
aa(lp190
F0.9786370396614075
aF-0.11041427403688431
aa(lp191
F0.9786370396614075
aF-0.11041427403688431
aa(lp192
F0.9786370396614075
aF-0.0
aa(lp193
F0.9786370396614075
aF0.08271024376153946
aa(lp194
F0.9786370396614075
aF0.09378168731927872
aa(lp195
F0.9786370396614075
aF0.09378168731927872
aa(lp196
F0.9786370396614075
aF0.09378168731927872
aa(lp197
F0.9786370396614075
aF0.08084522932767868
aa(lp198
F0.982299268245697
aF0.05314120277762413
aa(lp199
F0.9786370396614075
aF0.0032603940926492214
aa(lp200
F0.9786370396614075
aF0.0032603940926492214
aa(lp201
F0.9786370396614075
aF-0.0
aa(lp202
F0.9786370396614075
aF-0.0
aa(lp203
F0.9786370396614075
aF-0.0
aa(lp204
F0.9786370396614075
aF-0.0
aa(lp205
F0.9786370396614075
aF-0.0
aa(lp206
F0.9786370396614075
aF-0.0
aa(lp207
F0.982299268245697
aF-0.0
aa(lp208
F0.982299268245697
aF-0.008770680986344814
aa(lp209
F0.982299268245697
aF-0.06975683569908142
aa(lp210
F0.982299268245697
aF-0.016179896891117096
aa(lp211
F0.9786370396614075
aF0.05129313841462135
aa(lp212
F0.982299268245697
aF0.06790877133607864
aa(lp213
F0.982299268245697
aF0.0475970059633255
aa(lp214
F0.9786370396614075
aF-0.0
aa(lp215
F0.9786370396614075
aF-0.018011007457971573
aa(lp216
F0.982299268245697
aF-0.0
aa(lp217
F0.982299268245697
aF-0.0
aa(lp218
F0.982299268245697
aF-0.0
aa(lp219
F0.982299268245697
aF-0.0
aa(lp220
F0.982299268245697
aF-0.0
aa(lp221
F0.982299268245697
aF-0.0
aa(lp222
F0.982299268245697
aF-0.0032434393651783466
aa(lp223
F0.9786370396614075
aF-0.008770680986344814
aa(lp224
F0.9786370396614075
aF-0.01985907182097435
aa(lp225
F0.9786370396614075
aF-0.062364574521780014
aa(lp226
F0.982299268245697
aF-0.09008555114269257
aa(lp227
F0.9786370396614075
aF-0.10117394477128983
aa(lp228
F0.9786370396614075
aF-0.10117394477128983
aa(lp229
F0.9786370396614075
aF-0.10117394477128983
aa(lp230
F0.9786370396614075
aF-0.10117394477128983
aa(lp231
F0.9786370396614075
aF-0.10117394477128983
aa(lp232
F0.9786370396614075
aF-0.10117394477128983
aa(lp233
F0.9786370396614075
aF-0.10117394477128983
aa(lp234
F0.9786370396614075
aF-0.10117394477128983
aa(lp235
F0.9786370396614075
aF-0.10117394477128983
aa(lp236
F0.9786370396614075
aF-0.10117394477128983
aa(lp237
F0.9786370396614075
aF-0.10117394477128983
aa(lp238
F0.9786370396614075
aF-0.10671813786029816
aa(lp239
F0.9786370396614075
aF-0.15659895539283752
aa(lp240
F0.982299268245697
aF-0.16216009855270386
aa(lp241
F0.982299268245697
aF-0.17877572774887085
aa(lp242
F0.982299268245697
aF-0.17877572774887085
aa(lp243
F0.982299268245697
aF-0.17877572774887085
aa(lp244
F0.982299268245697
aF-0.0
aa(lp245
F0.982299268245697
aF-0.0
aa(lp246
F0.9786370396614075
aF-0.0
aa(lp247
F0.9786370396614075
aF-0.0
aa(lp248
F0.982299268245697
aF0.12889492511749268
aa(lp249
F0.9786370396614075
aF0.2065136730670929
aa(lp250
F0.9786370396614075
aF-0.0
aa(lp251
F0.982299268245697
aF0.08455831557512283
aa(lp252
F0.9786370396614075
aF0.20466560125350952
aa(lp253
F0.9786370396614075
aF0.21577094495296478
aa(lp254
F0.9786370396614075
aF0.278588205575943
aa(lp255
F0.9786370396614075
aF0.3247898519039154
aa(lp256
F0.9786370396614075
aF0.5
aa(lp257
F0.9786370396614075
aF0.5
aa(lp258
F0.9786370396614075
aF0.5
aa(lp259
F0.9786370396614075
aF0.5
aa(lp260
F0.9786370396614075
aF0.5
aa(lp261
F0.982299268245697
aF0.10487007349729538
aa(lp262
F0.9786370396614075
aF-0.08638942241668701
aa(lp263
F0.9786370396614075
aF-0.230521559715271
aa(lp264
F0.982299268245697
aF-0.28226739168167114
aa(lp265
F0.982299268245697
aF-0.28226739168167114
aa(lp266
F0.982299268245697
aF-0.28226739168167114
aa(lp267
F0.982299268245697
aF-0.30444416403770447
aa(lp268
F0.9786370396614075
aF-0.3173806369304657
aa(lp269
F0.9786370396614075
aF-0.3173806369304657
aa(lp270
F0.9786370396614075
aF-0.3173806369304657
aa(lp271
F0.9786370396614075
aF-0.3173806369304657
aa(lp272
F0.9786370396614075
aF-0.3173806369304657
aa(lp273
F0.9786370396614075
aF-0.3173806369304657
aa(lp274
F0.9786370396614075
aF-0.2600906193256378
aa(lp275
F0.9786370396614075
aF-0.2600906193256378
aa(lp276
F0.9786370396614075
aF-0.0
aa(lp277
F0.9786370396614075
aF0.05129313841462135
aa(lp278
F0.9786370396614075
aF0.07716605067253113
aa(lp279
F0.9786370396614075
aF0.08455831557512283
aa(lp280
F0.982299268245697
aF0.040204744786024094
aa(lp281
F0.982299268245697
aF0.040204744786024094
aa(lp282
F0.982299268245697
aF0.040204744786024094
aa(lp283
F0.982299268245697
aF0.040204744786024094
aa(lp284
F0.9786370396614075
aF0.0789971649646759
aa(lp285
F0.9786370396614075
aF0.09010250866413116
aa(lp286
F0.9786370396614075
aF0.10119090229272842
aa(lp287
F0.982299268245697
aF0.11227928847074509
aa(lp288
F0.982299268245697
aF0.1991214007139206
aa(lp289
F0.9786370396614075
aF0.20466560125350952
aa(lp290
F0.9786370396614075
aF0.25641143321990967
aa(lp291
F0.982299268245697
aF0.2674998342990875
aa(lp292
F0.9786370396614075
aF0.34696662425994873
aa(lp293
F0.982299268245697
aF0.35251083970069885
aa(lp294
F0.982299268245697
aF0.35251083970069885
aa(lp295
F0.9786370396614075
aF0.07716605067253113
aa(lp296
F0.9786370396614075
aF0.2711959481239319
aa(lp297
F0.982299268245697
aF0.06422959268093109
aa(lp298
F0.982299268245697
aF0.038356680423021317
aa(lp299
F0.9786370396614075
aF-0.0
aa(lp300
F0.9786370396614075
aF-0.0
aa(lp301
F0.982299268245697
aF-0.06790877133607864
aa(lp302
F0.9786370396614075
aF-0.17877572774887085
aa(lp303
F0.9786370396614075
aF-0.17877572774887085
aa(lp304
F0.9786370396614075
aF-0.17877572774887085
aa(lp305
F0.9933876395225525
aF-0.0032434393651783466
aa(lp306
F0.9933876395225525
aF-0.0032434393651783466
aa(lp307
F0.9933876395225525
aF-0.0032434393651783466
aa.