(lp0
(lp1
F-0.0
aF0.0
aa(lp2
F-0.0
aF0.0
aa(lp3
F0.9933876395225525
aF0.0
aa(lp4
F1.0
aF0.0
aa(lp5
F1.0
aF0.0
aa(lp6
F1.0
aF0.0
aa(lp7
F1.0
aF0.0
aa(lp8
F1.0
aF0.0
aa(lp9
F1.0
aF0.0
aa(lp10
F1.0
aF0.0
aa(lp11
F1.0
aF0.0
aa(lp12
F1.0
aF-0.0
aa(lp13
F1.0
aF0.16770429909229279
aa(lp14
F1.0
aF0.21760205924510956
aa(lp15
F1.0
aF0.47077006101608276
aa(lp16
F1.0
aF0.47077006101608276
aa(lp17
F1.0
aF0.4763312041759491
aa(lp18
F1.0
aF0.42458537220954895
aa(lp19
F1.0
aF0.05314120277762413
aa(lp20
F1.0
aF-0.0
aa(lp21
F1.0
aF-0.0
aa(lp22
F1.0
aF-0.03649165853857994
aa(lp23
F1.0
aF-0.3949993848800659
aa(lp24
F1.0
aF-0.36726143956184387
aa(lp25
F1.0
aF-0.36726143956184387
aa(lp26
F1.0
aF-0.4596647024154663
aa(lp27
F1.0
aF-0.4375048875808716
aa(lp28
F1.0
aF-0.5
aa(lp29
F1.0
aF-0.0
aa(lp30
F1.0
aF-0.0
aa(lp31
F1.0
aF-0.4116319715976715
aa(lp32
F1.0
aF-0.012466811574995518
aa(lp33
F1.0
aF-0.01985907182097435
aa(lp34
F1.0
aF-0.0
aa(lp35
F1.0
aF-0.0
aa(lp36
F1.0
aF0.21205785870552063
aa(lp37
F1.0
aF0.04205280914902687
aa(lp38
F1.0
aF0.1898980289697647
aa(lp39
F1.0
aF0.21205785870552063
aa(lp40
F1.0
aF0.06977379322052002
aa(lp41
F1.0
aF0.00693956995382905
aa(lp42
F1.0
aF0.001395374070852995
aa(lp43
F0.9749408960342407
aF0.0032603940926492214
aa(lp44
F0.9749408960342407
aF0.0032603940926492214
aa(lp45
F0.9749408960342407
aF0.0032603940926492214
aa(lp46
F0.9749408960342407
aF0.0032603940926492214
aa(lp47
F0.9786370396614075
aF0.0032603940926492214
aa(lp48
F0.982299268245697
aF-0.08823748677968979
aa(lp49
F0.997049868106842
aF-0.3266209661960602
aa(lp50
F1.0
aF-0.40793582797050476
aa(lp51
F1.0
aF-0.40793582797050476
aa(lp52
F1.0
aF-0.40793582797050476
aa(lp53
F1.0
aF-0.40793582797050476
aa(lp54
F1.0
aF-0.40793582797050476
aa(lp55
F1.0
aF-0.2527152895927429
aa(lp56
F1.0
aF-0.0032434393651783466
aa(lp57
F1.0
aF0.21760205924510956
aa(lp58
F1.0
aF0.3155325651168823
aa(lp59
F1.0
aF0.35990309715270996
aa(lp60
F1.0
aF0.3488146960735321
aa(lp61
F1.0
aF0.021724091842770576
aa(lp62
F1.0
aF0.005091504659503698
aa(lp63
F1.0
aF0.043900877237319946
aa(lp64
F1.0
aF0.03650861606001854
aa(lp65
F1.0
aF-0.0050745499320328236
aa(lp66
F1.0
aF-0.13072603940963745
aa(lp67
F1.0
aF-0.16031204164028168
aa(lp68
F1.0
aF-0.16031204164028168
aa(lp69
F1.0
aF-0.0
aa(lp70
F1.0
aF-0.0
aa(lp71
F1.0
aF-0.0
aa(lp72
F1.0
aF-0.0
aa(lp73
F1.0
aF0.01063570100814104
aa(lp74
F1.0
aF0.10487007349729538
aa(lp75
F1.0
aF0.20836172997951508
aa(lp76
F1.0
aF0.13074299693107605
aa(lp77
F1.0
aF0.14924059808254242
aa(lp78
F1.0
aF0.06422959268093109
aa(lp79
F1.0
aF0.09749476611614227
aa(lp80
F1.0
aF0.09749476611614227
aa(lp81
F1.0
aF0.1030389666557312
aa(lp82
F1.0
aF0.12889492511749268
aa(lp83
F1.0
aF0.16955235600471497
aa(lp84
F1.0
aF0.2139228880405426
aa(lp85
F1.0
aF0.22499431669712067
aa(lp86
F1.0
aF0.25641143321990967
aa(lp87
F1.0
aF0.278588205575943
aa(lp88
F1.0
aF0.2859804630279541
aa(lp89
F1.0
aF0.2859804630279541
aa(lp90
F1.0
aF-0.0
aa(lp91
F1.0
aF-0.0
aa(lp92
F1.0
aF-0.010618746280670166
aa(lp93
F1.0
aF-0.038339726626873016
aa(lp94
F1.0
aF-0.051276180893182755
aa(lp95
F1.0
aF-0.051276180893182755
aa(lp96
F1.0
aF-0.062364574521780014
aa(lp97
F1.0
aF-0.08823748677968979
aa(lp98
F1.0
aF-0.09378168731927872
aa(lp99
F1.0
aF-0.11778958141803741
aa(lp100
F1.0
aF-0.11778958141803741
aa(lp101
F1.0
aF-0.12335073202848434
aa(lp102
F1.0
aF-0.11226233839988708
aa(lp103
F1.0
aF-0.0
aa(lp104
F1.0
aF-0.0
aa(lp105
F1.0
aF-0.0
aa(lp106
F1.0
aF-0.0
aa(lp107
F1.0
aF-0.0
aa(lp108
F1.0
aF-0.0
aa(lp109
F1.0
aF-0.010618746280670166
aa(lp110
F1.0
aF-0.09191666543483734
aa(lp111
F1.0
aF-0.09191666543483734
aa(lp112
F1.0
aF-0.09191666543483734
aa(lp113
F1.0
aF-0.0
aa(lp114
F1.0
aF-0.0
aa(lp115
F1.0
aF-0.0
aa(lp116
F1.0
aF-0.0789802074432373
aa(lp117
F1.0
aF-0.08454135805368423
aa(lp118
F1.0
aF-0.0
aa(lp119
F1.0
aF-0.0
aa(lp120
F1.0
aF-0.0
aa(lp121
F1.0
aF-0.0
aa(lp122
F1.0
aF-0.0
aa(lp123
F1.0
aF-0.0
aa(lp124
F1.0
aF0.0475970059633255
aa(lp125
F1.0
aF0.0475970059633255
aa(lp126
F1.0
aF0.0475970059633255
aa(lp127
F1.0
aF0.06422959268093109
aa(lp128
F1.0
aF0.06977379322052002
aa(lp129
F1.0
aF0.05129313841462135
aa(lp130
F1.0
aF0.03650861606001854
aa(lp131
F1.0
aF0.04205280914902687
aa(lp132
F1.0
aF0.0475970059633255
aa(lp133
F1.0
aF0.04205280914902687
aa(lp134
F1.0
aF0.04205280914902687
aa(lp135
F1.0
aF0.04205280914902687
aa(lp136
F1.0
aF0.04205280914902687
aa(lp137
F0.9933876395225525
aF0.040204744786024094
aa(lp138
F0.9933876395225525
aF0.040204744786024094
aa(lp139
F0.9933876395225525
aF0.040204744786024094
aa(lp140
F0.997049868106842
aF-0.11595846712589264
aa(lp141
F0.997049868106842
aF-0.1898810863494873
aa(lp142
F0.997049868106842
aF-0.2674828767776489
aa(lp143
F0.997049868106842
aF-0.008770680986344814
aa(lp144
F1.0
aF-0.0
aa(lp145
F1.0
aF0.08084522932767868
aa(lp146
F1.0
aF0.08640637993812561
aa(lp147
F1.0
aF0.14552751183509827
aa(lp148
F1.0
aF0.15661589801311493
aa(lp149
F1.0
aF0.1418313831090927
aa(lp150
F1.0
aF0.14000026881694794
aa(lp151
F1.0
aF0.040204744786024094
aa(lp152
F1.0
aF0.012483766302466393
aa(lp153
F1.0
aF-0.0
aa(lp154
F1.0
aF-0.016179896891117096
aa(lp155
F1.0
aF-0.07345296442508698
aa(lp156
F1.0
aF-0.08454135805368423
aa(lp157
F1.0
aF-0.1030220091342926
aa(lp158
F1.0
aF-0.1030220091342926
aa(lp159
F1.0
aF-0.11411040276288986
aa(lp160
F1.0
aF-0.11411040276288986
aa(lp161
F1.0
aF-0.11411040276288986
aa(lp162
F1.0
aF-0.014331831596791744
aa(lp163
F1.0
aF-0.0
aa(lp164
F1.0
aF-0.0
aa(lp165
F1.0
aF-0.010618746280670166
aa(lp166
F1.0
aF-0.027268288657069206
aa(lp167
F1.0
aF-0.1584639698266983
aa(lp168
F1.0
aF-0.1991214007139206
aa(lp169
F1.0
aF-0.1991214007139206
aa(lp170
F1.0
aF-0.1991214007139206
aa(lp171
F1.0
aF-0.1991214007139206
aa(lp172
F1.0
aF-0.1991214007139206
aa(lp173
F1.0
aF-0.1991214007139206
aa(lp174
F1.0
aF-0.01985907182097435
aa(lp175
F1.0
aF-0.014331831596791744
aa(lp176
F1.0
aF-0.014331831596791744
aa(lp177
F1.0
aF-0.0
aa(lp178
F1.0
aF0.0956467017531395
aa(lp179
F1.0
aF0.18804997205734253
aa(lp180
F1.0
aF0.20836172997951508
aa(lp181
F1.0
aF0.27304401993751526
aa(lp182
F1.0
aF0.27304401993751526
aa(lp183
F1.0
aF0.32294178009033203
aa(lp184
F1.0
aF0.47077006101608276
aa(lp185
F1.0
aF0.23608271777629852
aa(lp186
F1.0
aF0.09934283792972565
aa(lp187
F1.0
aF-0.008770680986344814
aa(lp188
F1.0
aF-0.11041427403688431
aa(lp189
F1.0
aF-0.008770680986344814
aa(lp190
F1.0
aF-0.016179896891117096
aa(lp191
F1.0
aF-0.040204744786024094
aa(lp192
F1.0
aF-0.0
aa(lp193
F1.0
aF-0.18431992828845978
aa(lp194
F1.0
aF-0.010618746280670166
aa(lp195
F1.0
aF-0.20281752943992615
aa(lp196
F1.0
aF-0.051276180893182755
aa(lp197
F1.0
aF-0.0
aa(lp198
F1.0
aF-0.0
aa(lp199
F1.0
aF-0.0
aa(lp200
F1.0
aF-0.0
aa(lp201
F1.0
aF-0.0
aa(lp202
F1.0
aF-0.0
aa(lp203
F1.0
aF0.0716218575835228
aa(lp204
F1.0
aF0.21945013105869293
aa(lp205
F1.0
aF0.3321821093559265
aa(lp206
F1.0
aF0.43196067214012146
aa(lp207
F1.0
aF0.47261810302734375
aa(lp208
F1.0
aF0.47261810302734375
aa(lp209
F1.0
aF0.47261810302734375
aa(lp210
F1.0
aF0.4430490732192993
aa(lp211
F1.0
aF0.422720342874527
aa(lp212
F1.0
aF0.16402511298656464
aa(lp213
F1.0
aF-0.023555202409625053
aa(lp214
F1.0
aF-0.24345801770687103
aa(lp215
F1.0
aF-0.5
aa(lp216
F1.0
aF-0.4596647024154663
aa(lp217
F1.0
aF-0.09191666543483734
aa(lp218
F1.0
aF-0.5
aa(lp219
F1.0
aF-0.5
aa(lp220
F1.0
aF-0.5
aa(lp221
F1.0
aF-0.5
aa(lp222
F1.0
aF-0.5
aa(lp223
F1.0
aF-0.5
aa(lp224
F1.0
aF-0.5
aa(lp225
F1.0
aF-0.0
aa(lp226
F1.0
aF-0.06606070697307587
aa(lp227
F1.0
aF-0.2619386613368988
aa(lp228
F1.0
aF-0.016179896891117096
aa(lp229
F1.0
aF0.16217705607414246
aa(lp230
F1.0
aF0.21577094495296478
aa(lp231
F1.0
aF0.21577094495296478
aa(lp232
F1.0
aF0.18618494272232056
aa(lp233
F1.0
aF0.14739252626895905
aa(lp234
F1.0
aF0.16402511298656464
aa(lp235
F1.0
aF0.16955235600471497
aa(lp236
F1.0
aF0.16955235600471497
aa(lp237
F1.0
aF0.16955235600471497
aa(lp238
F1.0
aF0.16955235600471497
aa(lp239
F1.0
aF0.21760205924510956
aa(lp240
F1.0
aF0.21760205924510956
aa(lp241
F1.0
aF0.2711959481239319
aa(lp242
F1.0
aF0.27304401993751526
aa(lp243
F1.0
aF0.27304401993751526
aa(lp244
F1.0
aF0.038356680423021317
aa(lp245
F1.0
aF0.0475970059633255
aa(lp246
F1.0
aF0.21760205924510956
aa(lp247
F1.0
aF0.21760205924510956
aa(lp248
F1.0
aF-0.001395374070852995
aa(lp249
F1.0
aF-0.001395374070852995
aa(lp250
F1.0
aF-0.001395374070852995
aa(lp251
F1.0
aF-0.0
aa(lp252
F1.0
aF-0.0
aa(lp253
F1.0
aF-0.0
aa(lp254
F1.0
aF-0.0
aa(lp255
F1.0
aF-0.0
aa(lp256
F1.0
aF-0.0050745499320328236
aa(lp257
F1.0
aF-0.034643594175577164
aa(lp258
F1.0
aF-0.034643594175577164
aa(lp259
F1.0
aF-0.034643594175577164
aa(lp260
F1.0
aF-0.0
aa(lp261
F1.0
aF-0.0
aa(lp262
F1.0
aF-0.001395374070852995
aa(lp263
F1.0
aF-0.0
aa(lp264
F1.0
aF-0.0
aa(lp265
F1.0
aF-0.001395374070852995
aa(lp266
F1.0
aF-0.06975683569908142
aa(lp267
F1.0
aF-0.08638942241668701
aa(lp268
F1.0
aF-0.11595846712589264
aa(lp269
F1.0
aF-0.11595846712589264
aa(lp270
F1.0
aF-0.11595846712589264
aa(lp271
F1.0
aF-0.11595846712589264
aa(lp272
F1.0
aF-0.0032434393651783466
aa(lp273
F1.0
aF-0.0
aa(lp274
F1.0
aF-0.0716049000620842
aa(lp275
F1.0
aF-0.11411040276288986
aa(lp276
F1.0
aF-0.1436624974012375
aa(lp277
F1.0
aF-0.14922364056110382
aa(lp278
F1.0
aF-0.04203585535287857
aa(lp279
F1.0
aF-0.023555202409625053
aa(lp280
F1.0
aF-0.06051651015877724
aa(lp281
F1.0
aF-0.1030220091342926
aa(lp282
F1.0
aF-0.04388391971588135
aa(lp283
F1.0
aF-0.010618746280670166
aa(lp284
F1.0
aF-0.0
aa(lp285
F1.0
aF-0.0
aa(lp286
F1.0
aF-0.0
aa(lp287
F1.0
aF-0.0
aa(lp288
F1.0
aF-0.006922615226358175
aa(lp289
F1.0
aF-0.11595846712589264
aa(lp290
F1.0
aF-0.2453060895204544
aa(lp291
F1.0
aF-0.30444416403770447
aa(lp292
F1.0
aF-0.37834984064102173
aa(lp293
F1.0
aF-0.38391098380088806
aa(lp294
F1.0
aF-0.38391098380088806
aa(lp295
F1.0
aF-0.38391098380088806
aa(lp296
F1.0
aF-0.38391098380088806
aa(lp297
F1.0
aF-0.38391098380088806
aa(lp298
F1.0
aF-0.018011007457971573
aa(lp299
F1.0
aF-0.0
aa(lp300
F1.0
aF0.1436794400215149
aa(lp301
F1.0
aF0.5
aa(lp302
F1.0
aF0.5
aa(lp303
F1.0
aF0.5
aa(lp304
F1.0
aF0.5
aa(lp305
F1.0
aF0.5
aa(lp306
F1.0
aF0.5
aa(lp307
F1.0
aF0.5
aa(lp308
F1.0
aF0.4116489291191101
aa.